MPASM 5.87                          MAIN.ASM   11-16-2021  2:06:39         PAGE  1


LOC  OBJECT CODE     LINE SOURCE TEXT
  VALUE

                      00001 #include "inicializacion.asm"
                      00001 #include "p18f45k50.inc"
                      00001         LIST
                      00002 
                      00003 ;==========================================================================
                      00004 ; Build date : Jan 06 2020
                      00005 ;  MPASM PIC18F45K50 processor include
                      00006 ; 
                      00007 ;  (c) Copyright 1999-2020 Microchip Technology, All rights reserved
                      00008 ;==========================================================================
                      00009 
                      02340         LIST
                      00002     processor 18f45k50  ; (opcional).
                      00003     org 0x00
000000 EF?? F???      00004     goto CONFIGURA
                      00005     org 0x08            ; posición para interrupciones.
000008 0010           00006     retfie
                      00007     org 0x18            ; posición para interrupciones.
000018 0010           00008     retfie
                      00009     org 0x30            ; Origen real (opcional pero recomendado).
                      00010 
                      00011 ; DEFINICION DE EQUIVALENCIAS.
  00000000            00012 var1                EQU 0x00
  00000001            00013 var2                EQU 0x01
  00000002            00014 var3                EQU 0x02
  00000003            00015 _256                EQU 0x03
  00000004            00016 _26                 EQU 0x04
  00000005            00017 puntaje             EQU 0x05
  00000006            00018 boton_presionado    EQU 0x06
  00000007            00019 boton_esperado      EQU 0x07
  00000008            00020 register_loser      EQU 0x08
  00000009            00021 shifter             EQU 0x09
  0000000A            00022 trayectoria         EQU 0x0A
  0000000B            00023 encender_led        EQU 0x0B
  0000000C            00024 sec_aleatoria       EQU 0x0C
  0000000D            00025 puntaje_apoyo       EQU 0x0D
  00000011            00026 sec1                EQU 0x11
  00000012            00027 sec2                EQU 0x12
  00000013            00028 sec3                EQU 0x13
  00000014            00029 sec4                EQU 0x14
  00000015            00030 sec5                EQU 0x15
  00000016            00031 sec6                EQU 0x16
  00000017            00032 sec7                EQU 0x17
  00000018            00033 sec8                EQU 0x18
  00000019            00034 sec9                EQU 0x19
  0000001A            00035 sec10               EQU 0x1A
  00000020            00036 _256_1              EQU 0x20
  00000021            00037 _256_2              EQU 0x21
  00000022            00038 _5                  EQU 0x22
  00000023            00039 _17                 EQU 0x23
  00000024            00040 temp_eeprom1        EQU 0x24
  00000025            00041 temp_eeprom2        EQU 0x25
                      00042 
MPASM 5.87                          MAIN.ASM   11-16-2021  2:06:39         PAGE  2


LOC  OBJECT CODE     LINE SOURCE TEXT
  VALUE

                      00043 ; DEFINICION DE LEDS Y BIT REPRESENTATIVO DE CADA COLOR.
                      00044     #define led_azul            LATA, 0, A
                      00045     #define led_amarillo        LATA, 1, A
                      00046     #define led_naranja         LATA, 2, A
                      00047     #define led_blanco          LATA, 3, A
                      00048     #define led_rojo            LATA, 4, A
                      00049     #define led_verde           LATA, 5, A
                      00050     #define fila1               PORTB, 0, A
                      00051     #define fila2               PORTB, 1, A
                      00052     #define bit_led_azul        boton_presionado, 0, A
                      00053     #define bit_led_amarillo    boton_presionado, 1, A
                      00054     #define bit_led_naranja     boton_presionado, 2, A
                      00055     #define bit_led_blanco      boton_presionado, 3, A
                      00056     #define RS                  LATC, 0, A              ; RB0 -> Register Select.
                      00057     #define RW                  LATC, 1, A              ; RB2 -> Read/Write.
                      00058     #define E                   LATC, 2, A              ; RB1 -> Enable.
                      00059     #define flag                PORTD, 7, A             ; RD7 -> Busy flag.
                      00060     #define configFlag          TRISD, 7, A             ; Switch flag from INPUT to OUTPUT and viceversa
                            .
                      00061     #define dataLCD             LATD, A
                      00062     #define perdio              trayectoria, 0, A       ; Se activa este bit cuando el usuario pierde.
                      00063     #define correcto            trayectoria, 1, A       ; Se activa cuando se presiona el boton correcto
                            .
                      00064     #define para                trayectoria, 2, A       ; Se activa este bit cuando el usuario presiona 
                            el boton de paro.
                      00065     
000030                00066 CONFIGURA
000030 010F           00067     movlb   .15
000032 6B5B           00068     clrf    ANSELA, BANKED                      ; REGA -> DIGITAL.
000034 6B5C           00069     clrf    ANSELB, BANKED                      ; REGB -> DIGITAL.
000036 6B5D           00070     clrf    ANSELC, BANKED                      ; REGC -> DIGITAL.
000038 6B5E           00071     clrf    ANSELD, BANKED                      ; REGD -> DIGITAL.
00003A 9EF1           00072     bcf     INTCON2, 7                          ; ENABLE pull-ups.
00003C 0E03           00073     movlw   B'00000011'                 
00003E 6E93           00074     movwf   TRISB                               ; 3 salidas, 2 entradas.
000040 6E85           00075     movwf   WPUB                                ; habilitar 2 pull ups.
000042 6A92           00076     clrf    TRISA                               ; REGA -> OUTPUT.
000044 6A94           00077     clrf    TRISC                               ; REGC-> OUTPUT.
000046 6A95           00078     clrf    TRISD                               ; REGD -> OUTPUT.
000048 6A89           00079     clrf    LATA                                ; Limpiar la salida A.
00004A 6A8B           00080     clrf    LATC                                ; Limpiar la salida C.
00004C 6A8C           00081     clrf    LATD                                ; Limpiar la salida D.
00004E 68BB           00082     setf    PR2, A                              ; CONFIGURA E INICIA TIMER2 PARA EL NUM ALEATORIO
000050 0E04           00083     movlw   b'00000100'                         ; TMR2 ON, 1:1 , NO POST
000052 6EBA           00084     movwf   T2CON
000054 0E30           00085     movlw   '0'
000056 6E05           00086     movwf   puntaje, A
000058 900A           00087     bcf     perdio                              ; Asegura que empieza desactivada la opcion de perder.
00005A 920A           00088     bcf     correcto                            ; Asegura que empieza desactivada el bit de boton correc
                            to.
00005C 940A           00089     bcf     para                                ; Asegura que empieza desactivada la opcion de STOP.
00005E EF?? F???      00090     goto    MAIN
                      00002 #include "delays.asm"
MPASM 5.87                          MAIN.ASM   11-16-2021  2:06:39         PAGE  3


LOC  OBJECT CODE     LINE SOURCE TEXT
  VALUE

000062                00001 DELAY_100us
000062 0E21           00002     movlw   .33
000064 6E00           00003     movwf   var1
000066                00004 loop1                           
000066 2E00           00005     decfsz  var1 
000068 EF?? F???      00006     goto    loop1    
00006C 0012           00007     return ; 100us approx.
                      00008 
00006E                00009 DELAY_100ms
00006E 0E00           00010     movlw   .0          
000070 6E00           00011     movwf   var1
000072 0E80           00012     movlw   .128
000074 6E01           00013     movwf   var2
000076                00014 loop2                           
000076 2E00           00015     decfsz  var1
000078 EF?? F???      00016     goto    loop2
00007C 2E01           00017     decfsz  var2
00007E EF?? F???      00018     goto    loop2
000082 0012           00019     return      ; 100ms approx.
                      00020     
000084                00021 DELAY_20ms
000084 0E00           00022     movlw   .0                  
000086 6E03           00023     movwf   _256
000088 0E1A           00024     movlw   .26
00008A 6E04           00025     movwf   _26 
00008C                00026 LOOP1
00008C 2E03           00027     decfsz  _256
00008E EF?? F???      00028     goto    LOOP1                       ; (3)*256
000092 2E04           00029     decfsz  _26
000094 EF?? F???      00030     goto    LOOP1                       ; (3)*256*26 + (3)*26 = 78*256 + 78
                      00031     ; 20046+4 = 20.05ms approx. 
000098 0012           00032     return
                      00033     
00009A                00034 DELAY_1s
00009A 0E00           00035     movlw   .0                  
00009C 6E20           00036     movwf   _256_1
00009E 6E21           00037     movwf   _256_2
0000A0 0E05           00038     movlw   .5
0000A2 6E22           00039     movwf   _5
0000A4 0E11           00040     movlw   .17
0000A6 6E23           00041     movwf   _17 
                      00042     ; 7us approx. in this section
0000A8                00043 DELAY_1s_LOOP1                          
0000A8 2E20           00044     decfsz  _256_1
0000AA EF?? F???      00045     goto    DELAY_1s_LOOP1              ; (3)*256^2
0000AE 2E21           00046     decfsz  _256_2
0000B0 EF?? F???      00047     goto    DELAY_1s_LOOP1              ; (3)*256
0000B4 2E22           00048     decfsz  _5
0000B6 EF?? F???      00049     goto    DELAY_1s_LOOP1              ; (3)*(256^2+256)*5 + (3)*5 = 15*256^2 + 15*256 + 15
                      00050     ; 986,907us approx.
0000BA                00051 DELAY_1s_LOOP2                          
0000BA 2E20           00052     decfsz  _256_1              
0000BC EF?? F???      00053     goto    DELAY_1s_LOOP2              ; (3)*256
MPASM 5.87                          MAIN.ASM   11-16-2021  2:06:39         PAGE  4


LOC  OBJECT CODE     LINE SOURCE TEXT
  VALUE

0000C0 2E23           00054     decfsz  _17         
0000C2 EF?? F???      00055     goto    DELAY_1s_LOOP2              ; (3)*256*17 + (3)*17 = 51*256 + 51
                      00056     ; 13,107us approx.
                      00057     ; ===1.000021 seg approx.===
0000C6 0012           00058     return
                      00059     
0000C8                00060 TIMER_5s
0000C8 0E07           00061     movlw   b'00000111'         ; Configuración T0CON
0000CA 6ED5           00062     movwf   T0CON, A
0000CC 0EB3           00063     movlw   b'10110011'
0000CE 6ED7           00064     movwf   TMR0H,A
0000D0 0EB4           00065     movlw   b'10110100'
0000D2 94F2           00066     bcf     INTCON,2,A
0000D4 6ED6           00067     movwf   TMR0L,A   
0000D6 8ED5           00068     bsf     T0CON,7,A           ; Activa conteo
0000D8                00069 espera  
0000D8 B4F2           00070     btfsc   INTCON,2,A          ; Si se activa la bandera del TIMER, ir a TIME_OUT.
0000DA EF?? F???      00071     goto    TIME_OUT
0000DE EC?? F???      00072     call    RECORRIDO_JUEGO     ; Checar que boton se presiona.
0000E2 B40A           00073     btfsc   para                ; Si se presiono el boton de paro, ir a STOP.
0000E4 EF?? F???      00074     goto    STOP
0000E8 B20A           00075     btfsc   correcto            ; Si se presiono el boton correcto, regresar.
0000EA 0012           00076     return
0000EC B00A           00077     btfsc   perdio              ; Si se presiono un boton incorrecto, ir a GAME_OVER
0000EE EF?? F???      00078     goto    GAME_OVER
0000F2 EF?? F???      00079     goto    espera              ; Si no se ha presionado nada, continuar.
0000F6                00080 TIME_OUT
0000F6 EC?? F???      00081     call    _LOADING_CHARS_TIEMPO
0000FA EC?? F???      00082     call    SHOW_TIMES_OVER
0000FE EC?? F???      00083     call    DELAY_1s
000102                00084 GAME_OVER
000102 EC?? F???      00085     call    ON_RED
000106                00086 STOP
000106 EC?? F???      00087     call    _LOADING_CHARS_PERDER
00010A EC?? F???      00088     call    _WRITING_LOSER_ANIM
00010E EC?? F???      00089     call    WRITE_EEPROM_GAME
000112                00090 HIGHSCORE
000112 EC?? F???      00091     call    VERIFICAR_HIGHSCORE
000116 800A           00092     bsf     perdio
000118 0012           00093     return
00011A                00094 NIVEL_SUPERADO
00011A EC?? F???      00095     call    ON_GREEN
00011E EC?? F???      00096     call    _LOADING_CHARS_GANAR
000122 EC?? F???      00097     call    _WRITING_WINNER_ANIM
000126 EC?? F???      00098     call    SHOW_PUNTAJE
00012A EC?? F???      00099     call    DELAY_1s
00012E 0012           00100     return
                      00101     
                      00003 #include "lcd_subrutinas.asm"
000130                00001 INSTRUCTION_WRITE
000130 908B           00002     bcf     RS                  ; RS -> 0
000132 928B           00003     bcf     RW                  ; RW -> 0
000134 EF?? F???      00004     goto    SEND_DATA
MPASM 5.87                          MAIN.ASM   11-16-2021  2:06:39         PAGE  5


LOC  OBJECT CODE     LINE SOURCE TEXT
  VALUE

000138                00005 DATA_WRITE
000138 808B           00006     bsf     RS                  ; RS -> 1
00013A 928B           00007     bcf     RW                  ; RW -> 0
00013C EF?? F???      00008     goto    SEND_DATA
000140                00009 DATA_READ
000140 808B           00010     bsf     RS                  ; RS -> 1
000142 828B           00011     bsf     RW                  ; RW -> 1
000144 EF?? F???      00012     goto    SEND_DATA
                      00013     
000148                00014 SEND_DATA
000148 848B           00015     bsf     E                   ; Enable.
00014A 6E8C           00016     movwf   dataLCD             ; Data transmission.
00014C EC?? F???      00017     call    DELAY_100us
000150 948B           00018     bcf     E                   ; Stop Enable.
000152 EC?? F???      00019     call    DELAY_100us
                      00020     ;call    ESPERA_LCD         ; Wait to see if LCD is done.
000156 0012           00021     return
                      00022     
000158                00023 ESPERA_LCD
000158 8E95           00024     bsf     configFlag          ; RD7 -> INPUT (to be able to  read it).
00015A 908B           00025     bcf     RS                  ; RS -> 0
00015C 828B           00026     bsf     RW                  ; RW -> 1
00015E 848B           00027     bsf     E                   ; E -> 1
000160 0000           00028     nop
000162                00029 REGRESA
000162 EC?? F???      00030     call    DELAY_100ms         ; Wait 100us.
000166 BE83           00031     btfsc   flag                ; Read bussy flag.
000168 EF?? F???      00032     goto    REGRESA             ; If set, keep waiting.
00016C 948B           00033     bcf     E
00016E 9E95           00034     bcf     configFlag          ; RD7 -> OUTPUT again.
000170 0012           00035     return                      ; If not set, return.
                      00036 
000172                00037 CONFIGURE_LCD   
000172 948B           00038     bcf     E
000174 EC?? F???      00039     call    DELAY_100ms
000178 0E38           00040     movlw   b'00111000'         ; 8-bit, 2 lines, 5x7.
00017A EC?? F???      00041     call    INSTRUCTION_WRITE
00017E 0E0C           00042     movlw   b'00001100'         ; Display on, cursor off, blink off.
000180 EC?? F???      00043     call    INSTRUCTION_WRITE
000184 EC?? F???      00044     call    DELAY_100ms
000188 0E1C           00045     movlw   b'00011100'         ; Increment cursor position, display shift.
00018A EC?? F???      00046     call    INSTRUCTION_WRITE
00018E 0E01           00047     movlw   b'00000001'         ; Clear display and return to home position.
000190 EC?? F???      00048     call    INSTRUCTION_WRITE
000194 EC?? F???      00049     call    DELAY_100ms
000198 0012           00050     return
                      00004 #include "lcd_caracteres.asm"
00019A                00001 _LOADING_CHARS_TIEMPO
                      00002     ; write custom characters
00019A 0E00           00003     movlw .0
00019C 8CE8           00004     bsf WREG, 6, A ; set CGRAM to address 0 to start loading custom char
00019E EC?? F???      00005     call INSTRUCTION_WRITE
0001A2 EC?? F???      00006     call _SAD_PIXELS
MPASM 5.87                          MAIN.ASM   11-16-2021  2:06:39         PAGE  6


LOC  OBJECT CODE     LINE SOURCE TEXT
  VALUE

0001A6 0012           00007     return
0001A8                00008 _SAD_PIXELS
                      00009     ; first square .0 char
0001A8 0E00           00010     movlw b'00000'
0001AA EC?? F???      00011     call DATA_WRITE
0001AE 0E06           00012     movlw b'00110'
0001B0 EC?? F???      00013     call DATA_WRITE
0001B4 0E06           00014     movlw b'00110'
0001B6 EC?? F???      00015     call DATA_WRITE
0001BA 0E00           00016     movlw b'00000'
0001BC EC?? F???      00017     call DATA_WRITE
0001C0 0E01           00018     movlw b'00001'
0001C2 EC?? F???      00019     call DATA_WRITE
0001C6 0E06           00020     movlw b'00110'
0001C8 EC?? F???      00021     call DATA_WRITE
0001CC 0E08           00022     movlw b'01000'
0001CE EC?? F???      00023     call DATA_WRITE
0001D2 0E00           00024     movlw b'00000'
0001D4 EC?? F???      00025     call DATA_WRITE
                      00026     ; second square .8 char
0001D8 0E00           00027     movlw b'00000'
0001DA EC?? F???      00028     call DATA_WRITE
0001DE 0E0C           00029     movlw b'01100'
0001E0 EC?? F???      00030     call DATA_WRITE
0001E4 0E0C           00031     movlw b'01100'
0001E6 EC?? F???      00032     call DATA_WRITE
0001EA 0E00           00033     movlw b'00000'
0001EC EC?? F???      00034     call DATA_WRITE
0001F0 0E10           00035     movlw b'10000'
0001F2 EC?? F???      00036     call DATA_WRITE
0001F6 0E0C           00037     movlw b'01100'
0001F8 EC?? F???      00038     call DATA_WRITE
0001FC 0E02           00039     movlw b'00010'
0001FE EC?? F???      00040     call DATA_WRITE
000202 0E00           00041     movlw b'00000'
000204 EC?? F???      00042     call DATA_WRITE
000208 0012           00043     return
                      00044     
00020A                00045 _LOADING_CHARS_GANAR
                      00046     ; write custom characters
00020A 0E00           00047     movlw .0
00020C 8CE8           00048     bsf WREG, 6, A ; set CGRAM to address 0 to start loading custom char
00020E EC?? F???      00049     call INSTRUCTION_WRITE
000212 EC?? F???      00050     call _WINNER_PIXELS
000216 0012           00051     return
000218                00052 _WINNER_PIXELS
                      00053     ; first square .0 char
000218 0E00           00054     movlw b'00000'
00021A EC?? F???      00055     call DATA_WRITE
00021E 0E00           00056     movlw b'00000'
000220 EC?? F???      00057     call DATA_WRITE
000224 0E00           00058     movlw b'00000'
000226 EC?? F???      00059     call DATA_WRITE
MPASM 5.87                          MAIN.ASM   11-16-2021  2:06:39         PAGE  7


LOC  OBJECT CODE     LINE SOURCE TEXT
  VALUE

00022A 0E00           00060     movlw b'00000'
00022C EC?? F???      00061     call DATA_WRITE
000230 0E00           00062     movlw b'00000'
000232 EC?? F???      00063     call DATA_WRITE
000236 0E00           00064     movlw b'00000'
000238 EC?? F???      00065     call DATA_WRITE
00023C 0E04           00066     movlw b'00100'
00023E EC?? F???      00067     call DATA_WRITE
000242 0E0E           00068     movlw b'01110'
000244 EC?? F???      00069     call DATA_WRITE
                      00070     ; second square .8 char
000248 0E00           00071     movlw b'00000'
00024A EC?? F???      00072     call DATA_WRITE
00024E 0E00           00073     movlw b'00000'
000250 EC?? F???      00074     call DATA_WRITE
000254 0E00           00075     movlw b'00000'
000256 EC?? F???      00076     call DATA_WRITE
00025A 0E00           00077     movlw b'00000'
00025C EC?? F???      00078     call DATA_WRITE
000260 0E04           00079     movlw b'00100'
000262 EC?? F???      00080     call DATA_WRITE
000266 0E0E           00081     movlw b'01110'
000268 EC?? F???      00082     call DATA_WRITE
00026C 0E15           00083     movlw b'10101'
00026E EC?? F???      00084     call DATA_WRITE
000272 0E04           00085     movlw b'00100'
000274 EC?? F???      00086     call DATA_WRITE
                      00087     ; third square .16 char
000278 0E00           00088     movlw b'00000'
00027A EC?? F???      00089     call DATA_WRITE
00027E 0E00           00090     movlw b'00000'
000280 EC?? F???      00091     call DATA_WRITE
000284 0E04           00092     movlw b'00100'
000286 EC?? F???      00093     call DATA_WRITE
00028A 0E0E           00094     movlw b'01110'
00028C EC?? F???      00095     call DATA_WRITE
000290 0E15           00096     movlw b'10101'
000292 EC?? F???      00097     call DATA_WRITE
000296 0E04           00098     movlw b'00100'
000298 EC?? F???      00099     call DATA_WRITE
00029C 0E04           00100     movlw b'00100'
00029E EC?? F???      00101     call DATA_WRITE
0002A2 0E04           00102     movlw b'00100'
0002A4 EC?? F???      00103     call DATA_WRITE
                      00104     ; fourth square .24 char
0002A8 0E04           00105     movlw b'00100'
0002AA EC?? F???      00106     call DATA_WRITE
0002AE 0E0E           00107     movlw b'01110'
0002B0 EC?? F???      00108     call DATA_WRITE
0002B4 0E15           00109     movlw b'10101'
0002B6 EC?? F???      00110     call DATA_WRITE
0002BA 0E04           00111     movlw b'00100'
0002BC EC?? F???      00112     call DATA_WRITE
MPASM 5.87                          MAIN.ASM   11-16-2021  2:06:39         PAGE  8


LOC  OBJECT CODE     LINE SOURCE TEXT
  VALUE

0002C0 0E04           00113     movlw b'00100'
0002C2 EC?? F???      00114     call DATA_WRITE
0002C6 0E04           00115     movlw b'00100'
0002C8 EC?? F???      00116     call DATA_WRITE
0002CC 0E04           00117     movlw b'00100'
0002CE EC?? F???      00118     call DATA_WRITE
0002D2 0E00           00119     movlw b'00000'
0002D4 EC?? F???      00120     call DATA_WRITE
                      00121     ; fifth square .32 char
0002D8 0E15           00122     movlw b'10101'
0002DA EC?? F???      00123     call DATA_WRITE
0002DE 0E04           00124     movlw b'00100'
0002E0 EC?? F???      00125     call DATA_WRITE
0002E4 0E04           00126     movlw b'00100'
0002E6 EC?? F???      00127     call DATA_WRITE
0002EA 0E04           00128     movlw b'00100'
0002EC EC?? F???      00129     call DATA_WRITE
0002F0 0E04           00130     movlw b'00100'
0002F2 EC?? F???      00131     call DATA_WRITE
0002F6 0E00           00132     movlw b'00000'
0002F8 EC?? F???      00133     call DATA_WRITE
0002FC 0E00           00134     movlw b'00000'
0002FE EC?? F???      00135     call DATA_WRITE
000302 0E00           00136     movlw b'00000'
000304 EC?? F???      00137     call DATA_WRITE
                      00138     ; sixth square .40 char
000308 0E04           00139     movlw b'00100'
00030A EC?? F???      00140     call DATA_WRITE
00030E 0E04           00141     movlw b'00100'
000310 EC?? F???      00142     call DATA_WRITE
000314 0E04           00143     movlw b'00100'
000316 EC?? F???      00144     call DATA_WRITE
00031A 0E00           00145     movlw b'00000'
00031C EC?? F???      00146     call DATA_WRITE
000320 0E00           00147     movlw b'00000'
000322 EC?? F???      00148     call DATA_WRITE
000326 0E00           00149     movlw b'00000'
000328 EC?? F???      00150     call DATA_WRITE
00032C 0E00           00151     movlw b'00000'
00032E EC?? F???      00152     call DATA_WRITE
000332 0E00           00153     movlw b'00000'
000334 EC?? F???      00154     call DATA_WRITE
000338 0012           00155     return
                      00156 
00033A                00157 _LOADING_CHARS_PERDER
                      00158     ; write custom characters
00033A 0E00           00159     movlw .0
00033C 8CE8           00160     bsf WREG, 6, A ; set CGRAM to address 0 to start loading custom char
00033E EC?? F???      00161     call INSTRUCTION_WRITE
000342 EC?? F???      00162     call _LOSING_PIXELS
000346 0012           00163     return
000348                00164 _LOSING_PIXELS
                      00165     ; first square .0 char
MPASM 5.87                          MAIN.ASM   11-16-2021  2:06:39         PAGE  9


LOC  OBJECT CODE     LINE SOURCE TEXT
  VALUE

000348 0E03           00166     movlw b'00011'
00034A EC?? F???      00167     call DATA_WRITE
00034E 0E0F           00168     movlw b'01111'
000350 EC?? F???      00169     call DATA_WRITE
000354 0E0F           00170     movlw b'01111'
000356 EC?? F???      00171     call DATA_WRITE
00035A 0E1F           00172     movlw b'11111'
00035C EC?? F???      00173     call DATA_WRITE
000360 0E1F           00174     movlw b'11111'
000362 EC?? F???      00175     call DATA_WRITE
000366 0E1D           00176     movlw b'11101'
000368 EC?? F???      00177     call DATA_WRITE
00036C 0E19           00178     movlw b'11001'
00036E EC?? F???      00179     call DATA_WRITE
000372 0E1B           00180     movlw b'11011'
000374 EC?? F???      00181     call DATA_WRITE
                      00182     ; second square .8 char
000378 0E10           00183     movlw b'10000'
00037A EC?? F???      00184     call DATA_WRITE
00037E 0E1C           00185     movlw b'11100'
000380 EC?? F???      00186     call DATA_WRITE
000384 0E1C           00187     movlw b'11100'
000386 EC?? F???      00188     call DATA_WRITE
00038A 0E1E           00189     movlw b'11110'
00038C EC?? F???      00190     call DATA_WRITE
000390 0E1E           00191     movlw b'11110'
000392 EC?? F???      00192     call DATA_WRITE
000396 0E0E           00193     movlw b'01110'
000398 EC?? F???      00194     call DATA_WRITE
00039C 0E06           00195     movlw b'00110'
00039E EC?? F???      00196     call DATA_WRITE
0003A2 0E16           00197     movlw b'10110'
0003A4 EC?? F???      00198     call DATA_WRITE
                      00199     ; third square .16 char
0003A8 0E0F           00200     movlw b'01111'
0003AA EC?? F???      00201     call DATA_WRITE
0003AE 0E0E           00202     movlw b'01110'
0003B0 EC?? F???      00203     call DATA_WRITE
0003B4 0E07           00204     movlw b'00111'
0003B6 EC?? F???      00205     call DATA_WRITE
0003BA 0E04           00206     movlw b'00100'
0003BC EC?? F???      00207     call DATA_WRITE
0003C0 0E05           00208     movlw b'00101'
0003C2 EC?? F???      00209     call DATA_WRITE
0003C6 0E05           00210     movlw b'00101'
0003C8 EC?? F???      00211     call DATA_WRITE
0003CC 0E07           00212     movlw b'00111'
0003CE EC?? F???      00213     call DATA_WRITE
0003D2 0E03           00214     movlw b'00011'
0003D4 EC?? F???      00215     call DATA_WRITE
                      00216     ; fourth square .24 char
0003D8 0E1C           00217     movlw b'11100'
0003DA EC?? F???      00218     call DATA_WRITE
MPASM 5.87                          MAIN.ASM   11-16-2021  2:06:39         PAGE 10


LOC  OBJECT CODE     LINE SOURCE TEXT
  VALUE

0003DE 0E1C           00219     movlw b'11100'
0003E0 EC?? F???      00220     call DATA_WRITE
0003E4 0E18           00221     movlw b'11000'
0003E6 EC?? F???      00222     call DATA_WRITE
0003EA 0E08           00223     movlw b'01000'
0003EC EC?? F???      00224     call DATA_WRITE
0003F0 0E08           00225     movlw b'01000'
0003F2 EC?? F???      00226     call DATA_WRITE
0003F6 0E08           00227     movlw b'01000'
0003F8 EC?? F???      00228     call DATA_WRITE
0003FC 0E18           00229     movlw b'11000'
0003FE EC?? F???      00230     call DATA_WRITE
000402 0E10           00231     movlw b'10000'
000404 EC?? F???      00232     call DATA_WRITE
                      00233     
                      00234     ; fifth square .32 char
000408 0E1C           00235     movlw b'11100'
00040A EC?? F???      00236     call DATA_WRITE
00040E 0E10           00237     movlw b'10000'
000410 EC?? F???      00238     call DATA_WRITE
000414 0E10           00239     movlw b'10000'
000416 EC?? F???      00240     call DATA_WRITE
00041A 0E00           00241     movlw b'00000'
00041C EC?? F???      00242     call DATA_WRITE
000420 0E00           00243     movlw b'00000'
000422 EC?? F???      00244     call DATA_WRITE
000426 0E02           00245     movlw b'00010'
000428 EC?? F???      00246     call DATA_WRITE
00042C 0E06           00247     movlw b'00110'
00042E EC?? F???      00248     call DATA_WRITE
000432 0E04           00249     movlw b'00100'
000434 EC?? F???      00250     call DATA_WRITE
                      00251     ; sixth square .40 char
000438 0E0F           00252     movlw b'01111'
00043A EC?? F???      00253     call DATA_WRITE
00043E 0E03           00254     movlw b'00011'
000440 EC?? F???      00255     call DATA_WRITE
000444 0E03           00256     movlw b'00011'
000446 EC?? F???      00257     call DATA_WRITE
00044A 0E01           00258     movlw b'00001'
00044C EC?? F???      00259     call DATA_WRITE
000450 0E01           00260     movlw b'00001'
000452 EC?? F???      00261     call DATA_WRITE
000456 0E11           00262     movlw b'10001'
000458 EC?? F???      00263     call DATA_WRITE
00045C 0E19           00264     movlw b'11001'
00045E EC?? F???      00265     call DATA_WRITE
000462 0E09           00266     movlw b'01001'
000464 EC?? F???      00267     call DATA_WRITE
                      00268     ; seventh square .48 char
000468 0E10           00269     movlw b'10000'
00046A EC?? F???      00270     call DATA_WRITE
00046E 0E11           00271     movlw b'10001'
MPASM 5.87                          MAIN.ASM   11-16-2021  2:06:39         PAGE 11


LOC  OBJECT CODE     LINE SOURCE TEXT
  VALUE

000470 EC?? F???      00272     call DATA_WRITE
000474 0E18           00273     movlw b'11000'
000476 EC?? F???      00274     call DATA_WRITE
00047A 0E1B           00275     movlw b'11011'
00047C EC?? F???      00276     call DATA_WRITE
000480 0E1A           00277     movlw b'11010'
000482 EC?? F???      00278     call DATA_WRITE
000486 0E1A           00279     movlw b'11010'
000488 EC?? F???      00280     call DATA_WRITE
00048C 0E18           00281     movlw b'11000'
00048E EC?? F???      00282     call DATA_WRITE
000492 0E1C           00283     movlw b'11100'
000494 EC?? F???      00284     call DATA_WRITE
                      00285     ; eight square .56 char
000498 0E03           00286     movlw b'00011'
00049A EC?? F???      00287     call DATA_WRITE
00049E 0E03           00288     movlw b'00011'
0004A0 EC?? F???      00289     call DATA_WRITE
0004A4 0E07           00290     movlw b'00111'
0004A6 EC?? F???      00291     call DATA_WRITE
0004AA 0E17           00292     movlw b'10111'
0004AC EC?? F???      00293     call DATA_WRITE
0004B0 0E17           00294     movlw b'10111'
0004B2 EC?? F???      00295     call DATA_WRITE
0004B6 0E17           00296     movlw b'10111'
0004B8 EC?? F???      00297     call DATA_WRITE
0004BC 0E07           00298     movlw b'00111'
0004BE EC?? F???      00299     call DATA_WRITE
0004C2 0E0F           00300     movlw b'01111'
0004C4 EC?? F???      00301     call DATA_WRITE
                      00302    
0004C8 0012           00303     return
                      00304 
0004CA                00305 _WRITING_LOSER_ANIM ; writing the chars into the lcd display 
0004CA 0E01           00306     movlw   b'00000001'         ; Clear display and return to home position.
0004CC EC?? F???      00307     call    INSTRUCTION_WRITE
0004D0 EC?? F???      00308     call    DELAY_100ms
                      00309     ; first line of lcd
0004D4 0E01           00310     movlw   0x01 ; Move cursor to 0x00.
0004D6 8EE8           00311     bsf    WREG, 7, A 
0004D8 EC?? F???      00312     call    INSTRUCTION_WRITE
                      00313    
0004DC 0E00           00314     movlw   .0 ; Write first square.
0004DE EC?? F???      00315     call    DATA_WRITE
0004E2 0E01           00316     movlw   .1 ; Write second square.
0004E4 EC?? F???      00317     call    DATA_WRITE
                      00318     
0004E8 0E04           00319     movlw   .4 ; Write fifth square.
0004EA EC?? F???      00320     call    DATA_WRITE
0004EE 0E05           00321     movlw   .5 ; Write sixth square.
0004F0 EC?? F???      00322     call    DATA_WRITE
                      00323     ; one space
0004F4 0E06           00324     movlw   0x06 ; Move cursor to 0x05.
MPASM 5.87                          MAIN.ASM   11-16-2021  2:06:39         PAGE 12


LOC  OBJECT CODE     LINE SOURCE TEXT
  VALUE

0004F6 8EE8           00325     bsf    WREG, 7, A 
0004F8 EC?? F???      00326     call    INSTRUCTION_WRITE
                      00327     
0004FC 0E47           00328     movlw   'G' ; Write a 'G'.
0004FE EC?? F???      00329     call    DATA_WRITE
000502 0E41           00330     movlw   'A' ; Write a 'A'.
000504 EC?? F???      00331     call    DATA_WRITE
000508 0E4D           00332     movlw   'M' ; Write a 'M'.
00050A EC?? F???      00333     call    DATA_WRITE
00050E 0E45           00334     movlw   'E' ; Write a 'E'.
000510 EC?? F???      00335     call    DATA_WRITE
                      00336     
                      00337     ; one space
000514 0E0B           00338     movlw   0x0B ; Move cursor to 0x0A.
000516 8EE8           00339     bsf    WREG, 7, A 
000518 EC?? F???      00340     call    INSTRUCTION_WRITE
                      00341     
00051C 0E00           00342     movlw   .0 ; Write firt square.
00051E EC?? F???      00343     call    DATA_WRITE
000522 0E01           00344     movlw   .1 ; Write second square.
000524 EC?? F???      00345     call    DATA_WRITE
                      00346     
000528 0E04           00347     movlw   .4 ; Write fifth square.
00052A EC?? F???      00348     call    DATA_WRITE
00052E 0E05           00349     movlw   .5 ; Write sixth square.
000530 EC?? F???      00350     call    DATA_WRITE
                      00351     ; one space
000534 0E10           00352     movlw   0x10 ; Move cursor to 0x0E.
000536 8EE8           00353     bsf    WREG, 7, A 
000538 EC?? F???      00354     call    INSTRUCTION_WRITE
                      00355     
00053C 0E47           00356     movlw   'G' ; Write a 'G'.
00053E EC?? F???      00357     call    DATA_WRITE
000542 0E41           00358     movlw   'A' ; Write a 'A'.
000544 EC?? F???      00359     call    DATA_WRITE
000548 0E4D           00360     movlw   'M' ; Write a 'M'.
00054A EC?? F???      00361     call    DATA_WRITE
00054E 0E45           00362     movlw   'E' ; Write a 'E'.
000550 EC?? F???      00363     call    DATA_WRITE
                      00364     ; one space
000554 0E15           00365     movlw   0x15 ; Move cursor to 0x14.
000556 8EE8           00366     bsf    WREG, 7, A 
000558 EC?? F???      00367     call    INSTRUCTION_WRITE
                      00368    
                      00369     
00055C 0E00           00370     movlw   .0 ; Write first square.
00055E EC?? F???      00371     call    DATA_WRITE
000562 0E01           00372     movlw   .1 ; Write second square.
000564 EC?? F???      00373     call    DATA_WRITE
                      00374     
000568 0E04           00375     movlw   .4 ; Write fifth square.
00056A EC?? F???      00376     call    DATA_WRITE
00056E 0E05           00377     movlw   .5 ; Write sixth square.
MPASM 5.87                          MAIN.ASM   11-16-2021  2:06:39         PAGE 13


LOC  OBJECT CODE     LINE SOURCE TEXT
  VALUE

000570 EC?? F???      00378     call    DATA_WRITE
                      00379     
                      00380     ; second line of lcd
000574 0E41           00381     movlw   0x41 ; Move cursor to 0x40.
000576 8EE8           00382     bsf    WREG, 7, A 
000578 EC?? F???      00383     call    INSTRUCTION_WRITE
                      00384     
00057C 0E02           00385     movlw   .2 ; Write firt square.
00057E EC?? F???      00386     call    DATA_WRITE
000582 0E03           00387     movlw   .3 ; Write second square.
000584 EC?? F???      00388     call    DATA_WRITE
                      00389     
000588 0E06           00390     movlw   .6 ; Write fifth square.
00058A EC?? F???      00391     call    DATA_WRITE
00058E 0E07           00392     movlw   .7 ; Write sixth square.
000590 EC?? F???      00393     call    DATA_WRITE
                      00394     ; one space
000594 0E46           00395     movlw   0x46 ; Move cursor to 0x05.
000596 8EE8           00396     bsf    WREG, 7, A 
000598 EC?? F???      00397     call    INSTRUCTION_WRITE
                      00398     
00059C 0E4F           00399     movlw   'O' ; Write a 'O'.
00059E EC?? F???      00400     call    DATA_WRITE
0005A2 0E56           00401     movlw   'V' ; Write a 'V'.
0005A4 EC?? F???      00402     call    DATA_WRITE
0005A8 0E45           00403     movlw   'E' ; Write a 'E'.
0005AA EC?? F???      00404     call    DATA_WRITE
0005AE 0E52           00405     movlw   'R' ; Write a 'R'.
0005B0 EC?? F???      00406     call    DATA_WRITE
                      00407     ; one space
0005B4 0E4B           00408     movlw   0x4B ; Move cursor to 0x10.
0005B6 8EE8           00409     bsf    WREG, 7, A 
0005B8 EC?? F???      00410     call    INSTRUCTION_WRITE
                      00411     
0005BC 0E02           00412     movlw   .2 ; Write firt square.
0005BE EC?? F???      00413     call    DATA_WRITE
0005C2 0E03           00414     movlw   .3 ; Write second square.
0005C4 EC?? F???      00415     call    DATA_WRITE
                      00416     
0005C8 0E06           00417     movlw   .6 ; Write fifth square.
0005CA EC?? F???      00418     call    DATA_WRITE
0005CE 0E07           00419     movlw   .7 ; Write sixth square.
0005D0 EC?? F???      00420     call    DATA_WRITE
                      00421      ; one space
0005D4 0E50           00422     movlw   0x50 ; Move cursor to 0x05.
0005D6 8EE8           00423     bsf    WREG, 7, A 
0005D8 EC?? F???      00424     call    INSTRUCTION_WRITE
                      00425     
0005DC 0E4F           00426     movlw   'O' ; Write a 'O'.
0005DE EC?? F???      00427     call    DATA_WRITE
0005E2 0E56           00428     movlw   'V' ; Write a 'V'.
0005E4 EC?? F???      00429     call    DATA_WRITE
0005E8 0E45           00430     movlw   'E' ; Write a 'E'.
MPASM 5.87                          MAIN.ASM   11-16-2021  2:06:39         PAGE 14


LOC  OBJECT CODE     LINE SOURCE TEXT
  VALUE

0005EA EC?? F???      00431     call    DATA_WRITE
0005EE 0E52           00432     movlw   'R' ; Write a 'R'.
0005F0 EC?? F???      00433     call    DATA_WRITE
                      00434     ; six spaces
0005F4 0E55           00435     movlw   0x55 ; Move cursor to 0x20.
0005F6 8EE8           00436     bsf    WREG, 7, A 
0005F8 EC?? F???      00437     call    INSTRUCTION_WRITE
                      00438     
0005FC 0E02           00439     movlw   .2 ; Write first square.
0005FE EC?? F???      00440     call    DATA_WRITE
000602 0E03           00441     movlw   .3 ; Write second square.
000604 EC?? F???      00442     call    DATA_WRITE
                      00443     
000608 0E06           00444     movlw   .6 ; Write fifth square.
00060A EC?? F???      00445     call    DATA_WRITE
00060E 0E07           00446     movlw   .7 ; Write sixth square.
000610 EC?? F???      00447     call    DATA_WRITE
                      00448     
                      00449     ; display shift for animation
000614 0EF0           00450     movlw .240
000616 6E08           00451     movwf register_loser, A
                      00452  
000618                00453 LOOP_LOSER_LEFT
000618 EC?? F???      00454     call DELAY_100ms
00061C 0E18           00455     movlw b'00011000' ; set move display to the left
00061E EC?? F???      00456     call INSTRUCTION_WRITE
000622 3E08           00457     incfsz register_loser, 1, A
000624 EF?? F???      00458     goto LOOP_LOSER_LEFT
000628 0EF0           00459     movlw .240
00062A 6E08           00460     movwf register_loser, A
                      00461  
00062C                00462 LOOP_LOSER_RIGHT
00062C EC?? F???      00463     call DELAY_100ms
000630 0E1C           00464     movlw b'00011100' ; set move display to the left
000632 EC?? F???      00465     call INSTRUCTION_WRITE
000636 3E08           00466     incfsz register_loser, 1, A
000638 EF?? F???      00467     goto LOOP_LOSER_RIGHT
00063C 0012           00468     return
                      00469 
00063E                00470 _WRITING_WINNER_ANIM
00063E 0E01           00471     movlw   b'00000001'         ; Clear display and return to home position.
000640 EC?? F???      00472     call    INSTRUCTION_WRITE
000644 EC?? F???      00473     call    DELAY_100ms
                      00474     ;SECOND LINE
000648 0E44           00475     movlw   0x44
00064A 8EE8           00476     bsf     WREG, 7, A          
00064C EC?? F???      00477     call    INSTRUCTION_WRITE
                      00478     
000650 0E4C           00479     movlw   'L'                 
000652 EC?? F???      00480     call    DATA_WRITE    
000656 0E45           00481     movlw   'E'                 
000658 EC?? F???      00482     call    DATA_WRITE    
00065C 0E56           00483     movlw   'V'                 
MPASM 5.87                          MAIN.ASM   11-16-2021  2:06:39         PAGE 15


LOC  OBJECT CODE     LINE SOURCE TEXT
  VALUE

00065E EC?? F???      00484     call    DATA_WRITE    
000662 0E45           00485     movlw   'E'                 
000664 EC?? F???      00486     call    DATA_WRITE    
000668 0E4C           00487     movlw   'L'                 
00066A EC?? F???      00488     call    DATA_WRITE    
                      00489     
                      00490     ;SPACE
00066E 0E4A           00491     movlw   0x4A
000670 8EE8           00492     bsf     WREG, 7, A          
000672 EC?? F???      00493     call    INSTRUCTION_WRITE
                      00494     
000676 0E55           00495     movlw   'U'                 
000678 EC?? F???      00496     call    DATA_WRITE    
00067C 0E50           00497     movlw   'P'                 
00067E EC?? F???      00498     call    DATA_WRITE    
                      00499     
000682 0E02           00500     movlw   .2 ;Repeat animation 5 times
000684 6E02           00501     movwf   var3
000686                00502 WIN_ANIMATION_LOOP
                      00503    ;0  
000686 0E02           00504     movlw   0x02
000688 8EE8           00505     bsf     WREG, 7, A          
00068A EC?? F???      00506     call    INSTRUCTION_WRITE
                      00507     
00068E 0E00           00508     movlw   .0                  
000690 EC?? F???      00509     call    DATA_WRITE
                      00510     
                      00511     
000694 0E0D           00512     movlw   0x0D
000696 8EE8           00513     bsf     WREG, 7, A          
000698 EC?? F???      00514     call    INSTRUCTION_WRITE
                      00515     
00069C 0E00           00516     movlw   .0                  
00069E EC?? F???      00517     call    DATA_WRITE
0006A2 EC?? F???      00518     call    DELAY_100ms
                      00519     
                      00520     
                      00521     ;1   
0006A6 0E02           00522     movlw   0x02
0006A8 8EE8           00523     bsf     WREG, 7, A          
0006AA EC?? F???      00524     call    INSTRUCTION_WRITE
                      00525     
0006AE 0E01           00526     movlw   .1          
0006B0 EC?? F???      00527     call    DATA_WRITE
                      00528     
0006B4 0E0D           00529     movlw   0x0D
0006B6 8EE8           00530     bsf     WREG, 7, A          
0006B8 EC?? F???      00531     call    INSTRUCTION_WRITE
                      00532     
0006BC 0E01           00533     movlw   .1          
0006BE EC?? F???      00534     call    DATA_WRITE
0006C2 EC?? F???      00535     call    DELAY_100ms
                      00536     
MPASM 5.87                          MAIN.ASM   11-16-2021  2:06:39         PAGE 16


LOC  OBJECT CODE     LINE SOURCE TEXT
  VALUE

                      00537     ;2   
0006C6 0E02           00538     movlw   0x02
0006C8 8EE8           00539     bsf     WREG, 7, A          
0006CA EC?? F???      00540     call    INSTRUCTION_WRITE
                      00541     
0006CE 0E02           00542     movlw   .2          
0006D0 EC?? F???      00543     call    DATA_WRITE
                      00544     
0006D4 0E0D           00545     movlw   0x0D
0006D6 8EE8           00546     bsf     WREG, 7, A          
0006D8 EC?? F???      00547     call    INSTRUCTION_WRITE
                      00548     
0006DC 0E02           00549     movlw   .2          
0006DE EC?? F???      00550     call    DATA_WRITE
0006E2 EC?? F???      00551     call    DELAY_100ms
                      00552     
                      00553     ;3
0006E6 0E02           00554     movlw   0x02
0006E8 8EE8           00555     bsf     WREG, 7, A          
0006EA EC?? F???      00556     call    INSTRUCTION_WRITE
                      00557     
0006EE 0E03           00558     movlw   .3          
0006F0 EC?? F???      00559     call    DATA_WRITE
                      00560     
                      00561     
0006F4 0E0D           00562     movlw   0x0D
0006F6 8EE8           00563     bsf     WREG, 7, A          
0006F8 EC?? F???      00564     call    INSTRUCTION_WRITE
                      00565     
0006FC 0E03           00566     movlw   .3          
0006FE EC?? F???      00567     call    DATA_WRITE
000702 EC?? F???      00568     call    DELAY_100ms
                      00569     
                      00570     ;4
000706 0E02           00571     movlw   0x02
000708 8EE8           00572     bsf     WREG, 7, A          
00070A EC?? F???      00573     call    INSTRUCTION_WRITE
                      00574     
00070E 0E04           00575     movlw   .4          
000710 EC?? F???      00576     call    DATA_WRITE
                      00577     
                      00578     
000714 0E0D           00579     movlw   0x0D
000716 8EE8           00580     bsf     WREG, 7, A          
000718 EC?? F???      00581     call    INSTRUCTION_WRITE
                      00582     
00071C 0E04           00583     movlw   .4          
00071E EC?? F???      00584     call    DATA_WRITE
000722 EC?? F???      00585     call    DELAY_100ms
                      00586     
                      00587     ;5
000726 0E02           00588     movlw   0x02
000728 8EE8           00589     bsf     WREG, 7, A          
MPASM 5.87                          MAIN.ASM   11-16-2021  2:06:39         PAGE 17


LOC  OBJECT CODE     LINE SOURCE TEXT
  VALUE

00072A EC?? F???      00590     call    INSTRUCTION_WRITE
                      00591     
00072E 0E05           00592     movlw   .5          
000730 EC?? F???      00593     call    DATA_WRITE
                      00594     
                      00595     
000734 0E0D           00596     movlw   0x0D
000736 8EE8           00597     bsf     WREG, 7, A          
000738 EC?? F???      00598     call    INSTRUCTION_WRITE
                      00599     
00073C 0E05           00600     movlw   .5  
00073E EC?? F???      00601     call    DATA_WRITE
000742 EC?? F???      00602     call    DELAY_100ms
                      00603     
000746 2E02           00604     decfsz  var3
000748 EF?? F???      00605     goto    WIN_ANIMATION_LOOP
00074C 0012           00606     return
                      00607 
00074E                00608 SHOW_HIGHSCORE
00074E 0E01           00609     movlw   b'00000001'         ; Clear display and return to home position.
000750 EC?? F???      00610     call    INSTRUCTION_WRITE
000754 EC?? F???      00611     call    DELAY_100ms
000758 0E20           00612     movlw   ' '                 
00075A EC?? F???      00613     call    DATA_WRITE   
00075E 0E4E           00614     movlw   'N'                 
000760 EC?? F???      00615     call    DATA_WRITE    
000764 0E45           00616     movlw   'E'                 
000766 EC?? F???      00617     call    DATA_WRITE
00076A 0E57           00618     movlw   'W'                 
00076C EC?? F???      00619     call    DATA_WRITE
                      00620     
                      00621     ;SPACE
000770 0E05           00622     movlw   0x05        
000772 8EE8           00623     bsf     WREG, 7, A          
000774 EC?? F???      00624     call    INSTRUCTION_WRITE
                      00625     
000778 0E48           00626     movlw   'H'                 
00077A EC?? F???      00627     call    DATA_WRITE
00077E 0E49           00628     movlw   'I'                 
000780 EC?? F???      00629     call    DATA_WRITE
000784 0E47           00630     movlw   'G'                 
000786 EC?? F???      00631     call    DATA_WRITE
00078A 0E48           00632     movlw   'H'                 
00078C EC?? F???      00633     call    DATA_WRITE
                      00634  
                      00635     ;SPACE
000790 0E0A           00636     movlw   0x0A
000792 8EE8           00637     bsf     WREG, 7, A          
000794 EC?? F???      00638     call    INSTRUCTION_WRITE
                      00639     
000798 0E53           00640     movlw   'S'                 
00079A EC?? F???      00641     call    DATA_WRITE
00079E 0E43           00642     movlw   'C'                 
MPASM 5.87                          MAIN.ASM   11-16-2021  2:06:39         PAGE 18


LOC  OBJECT CODE     LINE SOURCE TEXT
  VALUE

0007A0 EC?? F???      00643     call    DATA_WRITE
0007A4 0E4F           00644     movlw   'O'                 
0007A6 EC?? F???      00645     call    DATA_WRITE
0007AA 0E52           00646     movlw   'R'                 
0007AC EC?? F???      00647     call    DATA_WRITE
0007B0 0E45           00648     movlw   'E'                 
0007B2 EC?? F???      00649     call    DATA_WRITE
0007B6 0E21           00650     movlw   '!'                 
0007B8 EC?? F???      00651     call    DATA_WRITE   
                      00652     
                      00653     
                      00654     ;SECOND LINE
0007BC 0E40           00655     movlw   0x40
0007BE 8EE8           00656     bsf     WREG, 7, A          
0007C0 EC?? F???      00657     call    INSTRUCTION_WRITE
                      00658     
0007C4 0E2D           00659     movlw   '-'                 
0007C6 EC?? F???      00660     call    DATA_WRITE    
0007CA 0E2D           00661     movlw   '-'                 
0007CC EC?? F???      00662     call    DATA_WRITE    
0007D0 0E2D           00663     movlw   '-'                 
0007D2 EC?? F???      00664     call    DATA_WRITE    
0007D6 0E2D           00665     movlw   '-'                 
0007D8 EC?? F???      00666     call    DATA_WRITE    
0007DC 0E2D           00667     movlw   '-'                 
0007DE EC?? F???      00668     call    DATA_WRITE    
0007E2 0E2D           00669     movlw   '-'                 
0007E4 EC?? F???      00670     call    DATA_WRITE    
0007E8 0E3E           00671     movlw   '>'                 
0007EA EC?? F???      00672     call    DATA_WRITE    
                      00673     
0007EE C005 F00D      00674     movff   puntaje, puntaje_apoyo
0007F2 EC?? F???      00675     call    PRINT_SCORE
                      00676     
0007F6 0E3C           00677     movlw   '<'                 
0007F8 EC?? F???      00678     call    DATA_WRITE    
0007FC 0E2D           00679     movlw   '-'                 
0007FE EC?? F???      00680     call    DATA_WRITE    
000802 0E2D           00681     movlw   '-'                 
000804 EC?? F???      00682     call    DATA_WRITE    
000808 0E2D           00683     movlw   '-'                 
00080A EC?? F???      00684     call    DATA_WRITE    
00080E 0E2D           00685     movlw   '-'                 
000810 EC?? F???      00686     call    DATA_WRITE    
000814 0E2D           00687     movlw   '-'                 
000816 EC?? F???      00688     call    DATA_WRITE    
00081A 0E2D           00689     movlw   '-'                 
00081C EC?? F???      00690     call    DATA_WRITE    
000820 0012           00691     return
                      00692 
000822                00693 SHOW_TIMES_OVER
000822 0E01           00694     movlw   b'00000001'         ; Clear display and return to home position.
000824 EC?? F???      00695     call    INSTRUCTION_WRITE
MPASM 5.87                          MAIN.ASM   11-16-2021  2:06:39         PAGE 19


LOC  OBJECT CODE     LINE SOURCE TEXT
  VALUE

000828 EC?? F???      00696     call    DELAY_100ms
00082C 0E04           00697     movlw   0x04        
00082E 8EE8           00698     bsf     WREG, 7, A          
000830 EC?? F???      00699     call    INSTRUCTION_WRITE
                      00700     
000834 0E54           00701     movlw   'T'                 
000836 EC?? F???      00702     call    DATA_WRITE    
00083A 0E49           00703     movlw   'I'                 
00083C EC?? F???      00704     call    DATA_WRITE
000840 0E4D           00705     movlw   'M'                 
000842 EC?? F???      00706     call    DATA_WRITE
000846 0E45           00707     movlw   'E'                 
000848 EC?? F???      00708     call    DATA_WRITE
00084C 0E53           00709     movlw   'S'                 
00084E EC?? F???      00710     call    DATA_WRITE
                      00711     
                      00712     ;SPACE
000852 0E0A           00713     movlw   0x0A
000854 8EE8           00714     bsf     WREG, 7, A          
000856 EC?? F???      00715     call    INSTRUCTION_WRITE
                      00716     
00085A 0E55           00717     movlw   'U'                 
00085C EC?? F???      00718     call    DATA_WRITE
000860 0E50           00719     movlw   'P'                 
000862 EC?? F???      00720     call    DATA_WRITE    
                      00721     
                      00722     ;SECOND LINE
000866 0E47           00723     movlw   0x47
000868 8EE8           00724     bsf     WREG, 7, A          
00086A EC?? F???      00725     call    INSTRUCTION_WRITE
                      00726  
00086E 0E00           00727     movlw   .0                  ; Write first square.
000870 EC?? F???      00728     call    DATA_WRITE
000874 0E01           00729     movlw   .1                  ; Write a second square.
000876 EC?? F???      00730     call    DATA_WRITE
                      00731  
00087A 0012           00732     return
                      00733 
                      00734 ;Subrutina para puntaje obtenido (no highscore)
00087C                00735 SHOW_PUNTAJE
00087C 0E01           00736     movlw   b'00000001'         ; Clear display and return to home position.
00087E EC?? F???      00737     call    INSTRUCTION_WRITE
000882 EC?? F???      00738     call    DELAY_100ms
000886 0E53           00739     movlw   'S'                 
000888 EC?? F???      00740     call    DATA_WRITE   
00088C 0E43           00741     movlw   'C'                 
00088E EC?? F???      00742     call    DATA_WRITE    
000892 0E4F           00743     movlw   'O'                 
000894 EC?? F???      00744     call    DATA_WRITE
000898 0E52           00745     movlw   'R'                 
00089A EC?? F???      00746     call    DATA_WRITE
00089E 0E45           00747     movlw   'E'                 
0008A0 EC?? F???      00748     call    DATA_WRITE
MPASM 5.87                          MAIN.ASM   11-16-2021  2:06:39         PAGE 20


LOC  OBJECT CODE     LINE SOURCE TEXT
  VALUE

0008A4 0E3A           00749     movlw   ':'                 
0008A6 EC?? F???      00750     call    DATA_WRITE
                      00751    
                      00752        
                      00753     ;SECOND LINE
0008AA 0E43           00754     movlw   0x43
0008AC 8EE8           00755     bsf     WREG, 7, A          
0008AE EC?? F???      00756     call    INSTRUCTION_WRITE
                      00757     
0008B2 0E2D           00758     movlw   '-'                 
0008B4 EC?? F???      00759     call    DATA_WRITE    
0008B8 0E2D           00760     movlw   '-'                 
0008BA EC?? F???      00761     call    DATA_WRITE    
0008BE 0E2D           00762     movlw   '-'                 
0008C0 EC?? F???      00763     call    DATA_WRITE       
0008C4 0E3E           00764     movlw   '>'                 
0008C6 EC?? F???      00765     call    DATA_WRITE       
                      00766     
0008CA C005 F00D      00767     movff   puntaje, puntaje_apoyo
0008CE EC?? F???      00768     call    PRINT_SCORE
                      00769     
0008D2 0E3C           00770     movlw   '<'                 
0008D4 EC?? F???      00771     call    DATA_WRITE    
0008D8 0E2D           00772     movlw   '-'                 
0008DA EC?? F???      00773     call    DATA_WRITE    
0008DE 0E2D           00774     movlw   '-'                 
0008E0 EC?? F???      00775     call    DATA_WRITE    
0008E4 0E2D           00776     movlw   '-'                 
0008E6 EC?? F???      00777     call    DATA_WRITE    
0008EA 0012           00778     return
                      00779     
0008EC                00780 SHOW_SCORES_MENU
0008EC 0E01           00781     movlw   b'00000001'         ; Clear display and return to home position.
0008EE EC?? F???      00782     call    INSTRUCTION_WRITE
0008F2 EC?? F???      00783     call    DELAY_100ms
0008F6 0E53           00784     movlw   'S'                 
0008F8 EC?? F???      00785     call    DATA_WRITE   
0008FC 0E43           00786     movlw   'C'                 
0008FE EC?? F???      00787     call    DATA_WRITE    
000902 0E4F           00788     movlw   'O'                 
000904 EC?? F???      00789     call    DATA_WRITE
000908 0E52           00790     movlw   'R'                 
00090A EC?? F???      00791     call    DATA_WRITE
00090E 0E45           00792     movlw   'E'                 
000910 EC?? F???      00793     call    DATA_WRITE
000914 0E53           00794     movlw   'S'                 
000916 EC?? F???      00795     call    DATA_WRITE   
00091A 0E3A           00796     movlw   ':'                 
00091C EC?? F???      00797     call    DATA_WRITE
                      00798     
                      00799     ;acceder EEPROM3
000920 0E03           00800     movlw   .3
000922 6EA9           00801     movwf   EEADR, A
MPASM 5.87                          MAIN.ASM   11-16-2021  2:06:39         PAGE 21


LOC  OBJECT CODE     LINE SOURCE TEXT
  VALUE

000924 80A6           00802     bsf     EECON1, 0, A ;habilitar lectura
000926 50A8           00803     movf    EEDATA, W, A
                      00804     
000928 6E0D           00805     movwf   puntaje_apoyo, A
00092A EC?? F???      00806     call    PRINT_SCORE
                      00807     
00092E 0E2D           00808     movlw   '-'                 
000930 EC?? F???      00809     call    DATA_WRITE
                      00810     
                      00811     ;acceder EEPROM2
000934 0E02           00812     movlw   .2
000936 6EA9           00813     movwf   EEADR, A
000938 80A6           00814     bsf     EECON1, 0, A ;habilitar lectura
00093A 50A8           00815     movf    EEDATA, W, A
                      00816     
00093C 6E0D           00817     movwf   puntaje_apoyo, A
00093E EC?? F???      00818     call    PRINT_SCORE
                      00819     
000942 0E2D           00820     movlw   '-'                 
000944 EC?? F???      00821     call    DATA_WRITE
                      00822 
                      00823     ;acceder EEPROM1 
000948 0E01           00824     movlw   .1
00094A 6EA9           00825     movwf   EEADR, A
00094C 80A6           00826     bsf     EECON1, 0, A ;habilitar lectura
00094E 50A8           00827     movf    EEDATA, W, A
                      00828     
000950 6E0D           00829     movwf   puntaje_apoyo, A
000952 EC?? F???      00830     call    PRINT_SCORE
                      00831     
                      00832     ;SECOND LINE
000956 0E40           00833     movlw   0x40
000958 8EE8           00834     bsf     WREG, 7, A          
00095A EC?? F???      00835     call    INSTRUCTION_WRITE
                      00836     
00095E 0E42           00837     movlw   'B'                 
000960 EC?? F???      00838     call    DATA_WRITE    
000964 0E45           00839     movlw   'E'                 
000966 EC?? F???      00840     call    DATA_WRITE    
00096A 0E53           00841     movlw   'S'                 
00096C EC?? F???      00842     call    DATA_WRITE    
000970 0E54           00843     movlw   'T'                 
000972 EC?? F???      00844     call    DATA_WRITE    
                      00845     ;SPACE
000976 0E45           00846     movlw   0x45
000978 8EE8           00847     bsf     WREG, 7, A          
00097A EC?? F???      00848     call    INSTRUCTION_WRITE
                      00849     
00097E 0E53           00850     movlw   'S'                 
000980 EC?? F???      00851     call    DATA_WRITE    
000984 0E43           00852     movlw   'C'                 
000986 EC?? F???      00853     call    DATA_WRITE    
00098A 0E4F           00854     movlw   'O'                 
MPASM 5.87                          MAIN.ASM   11-16-2021  2:06:39         PAGE 22


LOC  OBJECT CODE     LINE SOURCE TEXT
  VALUE

00098C EC?? F???      00855     call    DATA_WRITE      
000990 0E52           00856     movlw   'R'                 
000992 EC?? F???      00857     call    DATA_WRITE     
000996 0E45           00858     movlw   'E'                 
000998 EC?? F???      00859     call    DATA_WRITE    
00099C 0E2D           00860     movlw   '-'                 
00099E EC?? F???      00861     call    DATA_WRITE    
0009A2 0E3E           00862     movlw   '>'                 
0009A4 EC?? F???      00863     call    DATA_WRITE    
                      00864      
0009A8 0E00           00865     movlw   .0
0009AA 6EA9           00866     movwf   EEADR, A
0009AC 80A6           00867     bsf     EECON1, 0, A ;habilitar lectura
0009AE 50A8           00868     movf    EEDATA, W, A
0009B0 90A6           00869     bcf     EECON1, 0 , A ; se inhabilita la lectura
                      00870     
0009B2 6E0D           00871     movwf   puntaje_apoyo, A
0009B4 EC?? F???      00872     call    PRINT_SCORE
0009B8 0012           00873     return
                      00874  
                      00875  
0009BA                00876 SHOW_MAIN_MENU
0009BA 0E01           00877     movlw   b'00000001'         ; Clear display and return to home position.
0009BC EC?? F???      00878     call    INSTRUCTION_WRITE
0009C0 EC?? F???      00879     call    DELAY_100ms
0009C4 0E53           00880     movlw   'S'                 
0009C6 EC?? F???      00881     call    DATA_WRITE    
0009CA 0E2D           00882     movlw   '-'                 
0009CC EC?? F???      00883     call    DATA_WRITE
0009D0 0E2D           00884     movlw   '-'                 
0009D2 EC?? F???      00885     call    DATA_WRITE
0009D6 0E3E           00886     movlw   '>'                 
0009D8 EC?? F???      00887     call    DATA_WRITE
                      00888     
                      00889     ;SPACE
0009DC 0E05           00890     movlw   0x05        
0009DE 8EE8           00891     bsf     WREG, 7, A          
0009E0 EC?? F???      00892     call    INSTRUCTION_WRITE
                      00893     
0009E4 0E4E           00894     movlw   'N'                 
0009E6 EC?? F???      00895     call    DATA_WRITE
0009EA 0E45           00896     movlw   'E'                 
0009EC EC?? F???      00897     call    DATA_WRITE
0009F0 0E57           00898     movlw   'W'                 
0009F2 EC?? F???      00899     call    DATA_WRITE
                      00900     
                      00901     ;SPACE
0009F6 0E09           00902     movlw   0x09
0009F8 8EE8           00903     bsf WREG, 7, A              
0009FA EC?? F???      00904     call    INSTRUCTION_WRITE
                      00905     
0009FE 0E47           00906     movlw   'G'                 
000A00 EC?? F???      00907     call    DATA_WRITE
MPASM 5.87                          MAIN.ASM   11-16-2021  2:06:39         PAGE 23


LOC  OBJECT CODE     LINE SOURCE TEXT
  VALUE

000A04 0E41           00908     movlw   'A'                 
000A06 EC?? F???      00909     call    DATA_WRITE
000A0A 0E4D           00910     movlw   'M'                 
000A0C EC?? F???      00911     call    DATA_WRITE
000A10 0E45           00912     movlw   'E'                 
000A12 EC?? F???      00913     call    DATA_WRITE
                      00914     
                      00915     ;SECOND LINE
000A16 0E40           00916     movlw   0x40
000A18 8EE8           00917     bsf WREG, 7, A              
000A1A EC?? F???      00918     call    INSTRUCTION_WRITE
                      00919     
000A1E 0E50           00920     movlw   'P'                 
000A20 EC?? F???      00921     call    DATA_WRITE    
000A24 0E2D           00922     movlw   '-'                 
000A26 EC?? F???      00923     call    DATA_WRITE
000A2A 0E2D           00924     movlw   '-'                 
000A2C EC?? F???      00925     call    DATA_WRITE
000A30 0E3E           00926     movlw   '>'                 
000A32 EC?? F???      00927     call    DATA_WRITE
                      00928     
                      00929     ;SPACE
000A36 0E45           00930     movlw   0x45        
000A38 8EE8           00931     bsf WREG, 7, A              
000A3A EC?? F???      00932     call    INSTRUCTION_WRITE
                      00933     
000A3E 0E50           00934     movlw   'P'                 
000A40 EC?? F???      00935     call    DATA_WRITE
000A44 0E52           00936     movlw   'R'                 
000A46 EC?? F???      00937     call    DATA_WRITE
000A4A 0E45           00938     movlw   'E'                 
000A4C EC?? F???      00939     call    DATA_WRITE
000A50 0E56           00940     movlw   'V'                 
000A52 EC?? F???      00941     call    DATA_WRITE
                      00942     
                      00943     ;SPACE
000A56 0E4A           00944     movlw   0x4A
000A58 8EE8           00945     bsf WREG, 7, A              
000A5A EC?? F???      00946     call    INSTRUCTION_WRITE
                      00947     
000A5E 0E53           00948     movlw   'S'                 
000A60 EC?? F???      00949     call    DATA_WRITE
000A64 0E43           00950     movlw   'C'                 
000A66 EC?? F???      00951     call    DATA_WRITE
000A6A 0E4F           00952     movlw   'O'                 
000A6C EC?? F???      00953     call    DATA_WRITE
000A70 0E52           00954     movlw   'R'                 
000A72 EC?? F???      00955     call    DATA_WRITE
000A76 0E45           00956     movlw   'E'                 
000A78 EC?? F???      00957     call    DATA_WRITE
000A7C 0E53           00958     movlw   'S'                 
000A7E EC?? F???      00959     call    DATA_WRITE
000A82 0012           00960     return
MPASM 5.87                          MAIN.ASM   11-16-2021  2:06:39         PAGE 24


LOC  OBJECT CODE     LINE SOURCE TEXT
  VALUE

                      00961 
000A84                00962 PRINT_SCORE
000A84 500D           00963     movf    puntaje_apoyo, W, A
000A86 0841           00964     sublw   'A'
000A88 A4D8           00965     btfss   STATUS, Z, A                ; Checa si restando 'A' se vuelve 0.
000A8A EF?? F???      00966     goto    PRINT_LESS_10               ; If not 'A'.
000A8E 0E31           00967     movlw   '1'                         ; If it is 'A'.
000A90 EC?? F???      00968     call    DATA_WRITE      
000A94 0E30           00969     movlw   '0' 
000A96 EC?? F???      00970     call    DATA_WRITE
000A9A 0012           00971     return
000A9C                00972 PRINT_LESS_10
000A9C 0E30           00973     movlw   '0'                 
000A9E EC?? F???      00974     call    DATA_WRITE      
000AA2 500D           00975     movf    puntaje_apoyo, W, A
000AA4 EC?? F???      00976     call    DATA_WRITE
000AA8 0012           00977     return
                      00005 #include "teclado_subrutinas.asm"
000AAA                00001 RECORRIDO_JUEGO
000AAA 0EFB           00002     movlw   b'11111011'                 ; ACTIVAR COLUMNA 1 (verde, naranja).
000AAC 6E8A           00003     movwf   LATB, A
000AAE A081           00004     btfss   fila1                       ; Revisar si se presiona el boton de START/STOP.
000AB0 EC?? F???      00005     call    BOTON_START_STOP
000AB4 A281           00006     btfss   fila2                       ; Revisar si se presiona el boton naranja.
000AB6 EC?? F???      00007     call    BOTON_NARANJA
000ABA 0EF7           00008     movlw   b'11110111'                 ; ACTIVAR COLUMNA 2 (blanco, azul).
000ABC 6E8A           00009     movwf   LATB, A
000ABE A081           00010     btfss   fila1                       ; Revisar si se presiona el boton blanco.
000AC0 EC?? F???      00011     call    BOTON_BLANCO
000AC4 A281           00012     btfss   fila2                       ; Revisar si se presiona el boton azul.
000AC6 EC?? F???      00013     call    BOTON_AZUL
000ACA 0EEF           00014     movlw   b'11101111'                 ; ACTIVAR COLUMNA 3 (rojo, amarillo).
000ACC 6E8A           00015     movwf   LATB, A
                      00016     ;btfss   fila1                      ; Revisar si se presiona el boton de HIGHSCORE.
                      00017     ;call    BOTON_HIGHSCORE
000ACE A281           00018     btfss   PORTB, 1, A                 ; Revisar si se presiona el boton amarillo.
000AD0 EC?? F???      00019     call    BOTON_AMARILLO
000AD4 0012           00020     return
                      00021     
000AD6                00022 RECORRIDO_MENU
000AD6 0EFB           00023     movlw   b'11111011'                 ; ACTIVAR COLUMNA 1 (START/STOP, naranja).
000AD8 6E8A           00024     movwf   LATB, A
000ADA A081           00025     btfss   fila1                       ; Revisar si se presiona el boton de START/STOP.
000ADC EF?? F???      00026     goto    BOTON_START_MENU
000AE0 0EEF           00027     movlw   b'11101111'                 ; ACTIVAR COLUMNA 3 (HIGHSCORE, amarillo).
000AE2 6E8A           00028     movwf   LATB, A
000AE4 A081           00029     btfss   fila1                       ; Revisar si se presiona el boton de HIGHSCORE.
000AE6 EF?? F???      00030     goto    BOTON_HIGHSCORE
000AEA EF?? F???      00031     goto    RECORRIDO_MENU
                      00032     
000AEE                00033 BOTON_START_STOP
000AEE A081           00034     btfss   fila1                       ; Revisar si sigue presionado el boton.
000AF0 EF?? F???      00035     goto    BOTON_START_STOP            ; Si aun no se suleta, esperar.
MPASM 5.87                          MAIN.ASM   11-16-2021  2:06:39         PAGE 25


LOC  OBJECT CODE     LINE SOURCE TEXT
  VALUE

000AF4 0E30           00036     movlw   '0'
000AF6 6E05           00037     movwf   puntaje
000AF8 EC?? F???      00038     call    DELAY_20ms                  ; Antirebote.
000AFC 840A           00039     bsf     para                        ; Encender bit de que se presiono STOP.
000AFE 0012           00040     return
000B00                00041 BOTON_NARANJA
000B00 8489           00042     bsf     led_naranja                 ; Prender el LED.
000B02 A281           00043     btfss   fila2                       ; Revisar si sigue presionado el boton.
000B04 EF?? F???      00044     goto    BOTON_NARANJA               ; Si aun no se suleta, esperar.
000B08 9489           00045     bcf     led_naranja                 ; Apagar el LED.
000B0A 6A06           00046     clrf    boton_presionado            ; Limpiar el registro.
000B0C 8406           00047     bsf     bit_led_naranja             ; Encender el bit representativo del LED naranja.
000B0E EC?? F???      00048     call    DELAY_20ms                  ; Antirebote.
000B12 EC?? F???      00049     call    REVISAR_BOTON
000B16 0012           00050     return
000B18                00051 BOTON_BLANCO
000B18 8689           00052     bsf     led_blanco                  ; Prender el LED.
000B1A A081           00053     btfss   fila1                       ; Revisar si sigue presionado el boton.
000B1C EF?? F???      00054     goto    BOTON_BLANCO                ; Si aun no se suleta, esperar.
000B20 9689           00055     bcf     led_blanco                  ; Apagar el LED.
000B22 6A06           00056     clrf    boton_presionado            ; Limpiar el registro.
000B24 8606           00057     bsf     bit_led_blanco              ; Encender el bit representativo del LED blanco.
000B26 EC?? F???      00058     call    DELAY_20ms                  ; Antirebote.
000B2A EC?? F???      00059     call    REVISAR_BOTON
000B2E 0012           00060     return
000B30                00061 BOTON_AZUL
000B30 8089           00062     bsf     led_azul                    ; Prender el LED.
000B32 A281           00063     btfss   fila2                       ; Revisar si sigue presionado el boton.
000B34 EF?? F???      00064     goto    BOTON_AZUL                  ; Si aun no se suleta, esperar.
000B38 9089           00065     bcf     led_azul                    ; Apagar el LED.
000B3A 6A06           00066     clrf    boton_presionado            ; Limpiar el registro.
000B3C 8006           00067     bsf     bit_led_azul                ; Encender el bit representativo del LED azul.
000B3E EC?? F???      00068     call    DELAY_20ms                  ; Antirebote.
000B42 EC?? F???      00069     call    REVISAR_BOTON
000B46 0012           00070     return
000B48                00071 BOTON_AMARILLO
000B48 8289           00072     bsf     led_amarillo                ; Prender el LED.
000B4A A281           00073     btfss   fila2                       ; Revisar si sigue presionado el boton.
000B4C EF?? F???      00074     goto    BOTON_AMARILLO              ; Si aun no se suleta, esperar.
000B50 9289           00075     bcf     led_amarillo                ; Apagar el LED.
000B52 6A06           00076     clrf    boton_presionado            ; Limpiar el registro.
000B54 8206           00077     bsf     bit_led_amarillo            ; Encender el bit representativo del LED amarillo.
000B56 EC?? F???      00078     call    DELAY_20ms                  ; Antirebote.
000B5A EC?? F???      00079     call    REVISAR_BOTON
000B5E 0012           00080     return
                      00081     
000B60                00082 BOTON_START_MENU
000B60 A081           00083     btfss   fila1                       ; Revisar si sigue presionado el boton.
000B62 EF?? F???      00084     goto    BOTON_START_MENU            ; Si aun no se suleta, esperar.
000B66 EC?? F???      00085     call    DELAY_20ms                  ; Antirebote.
000B6A EC?? F???      00086     call    ON_GREEN
000B6E EF?? F???      00087     goto    JUEGO
                      00088     
MPASM 5.87                          MAIN.ASM   11-16-2021  2:06:39         PAGE 26


LOC  OBJECT CODE     LINE SOURCE TEXT
  VALUE

000B72                00089 BOTON_HIGHSCORE
000B72 A081           00090     btfss   fila1                       ; Revisar si sigue presionado el boton.
000B74 EF?? F???      00091     goto    BOTON_HIGHSCORE             ; Si aun no se suleta, esperar.
000B78 EC?? F???      00092     call    DELAY_20ms                  ; Antirebote.
000B7C EC?? F???      00093     call    ON_RED
000B80 EF?? F???      00094     goto    PUNTAJES    
                      00095     
000B84                00096 REVISAR_BOTON
000B84 5007           00097     movf    boton_esperado, W, A                ; Se resta boton_esperado - boton_presionado.
000B86 5C06           00098     subwf   boton_presionado, W, A              ; Si son iguales, la resta debe dar 0.
000B88 50E8           00099     movf    WREG, W, A                          ; Se activa STATUS para WREG.
000B8A A4D8           00100     btfss   STATUS, Z, A                        ; Se revisa el bit de CERO en STATUS.
000B8C 800A           00101     bsf     perdio                              ; Si no da 0, no era el boton correcto, pierde.
000B8E B4D8           00102     btfsc   STATUS, Z, A                        ; Se revisa el bit de CERO en STATUS.
000B90 820A           00103     bsf     correcto                            ; Si era 0, activa el bit de correcto.
000B92 0012           00104     return
                      00006 #include "otras_subrutinas.asm"
000B94                00001 ON_GREEN
000B94 8A89           00002     bsf     led_verde
000B96 EC?? F???      00003     call    DELAY_100ms
000B9A EC?? F???      00004     call    DELAY_100ms
000B9E EC?? F???      00005     call    DELAY_100ms
000BA2 EC?? F???      00006     call    DELAY_100ms
000BA6 EC?? F???      00007     call    DELAY_100ms
000BAA 9A89           00008     bcf     led_verde
000BAC 0012           00009     return
                      00010  
000BAE                00011 ON_RED
000BAE 8889           00012     bsf     led_rojo
000BB0 EC?? F???      00013     call    DELAY_100ms
000BB4 EC?? F???      00014     call    DELAY_100ms
000BB8 EC?? F???      00015     call    DELAY_100ms
000BBC EC?? F???      00016     call    DELAY_100ms
000BC0 EC?? F???      00017     call    DELAY_100ms
000BC4 9889           00018     bcf     led_rojo
000BC6 0012           00019     return
                      00020     
000BC8                00021 ON_ORANGE
000BC8 8489           00022     bsf     led_naranja
000BCA EC?? F???      00023     call    DELAY_100ms
000BCE EC?? F???      00024     call    DELAY_100ms
000BD2 EC?? F???      00025     call    DELAY_100ms
000BD6 EC?? F???      00026     call    DELAY_100ms
000BDA EC?? F???      00027     call    DELAY_100ms
000BDE 9489           00028     bcf     led_naranja
000BE0 0012           00029     return
                      00030     
000BE2                00031 ON_WHITE
000BE2 8689           00032     bsf     led_blanco
000BE4 EC?? F???      00033     call    DELAY_100ms
000BE8 EC?? F???      00034     call    DELAY_100ms
000BEC EC?? F???      00035     call    DELAY_100ms
000BF0 EC?? F???      00036     call    DELAY_100ms
MPASM 5.87                          MAIN.ASM   11-16-2021  2:06:39         PAGE 27


LOC  OBJECT CODE     LINE SOURCE TEXT
  VALUE

000BF4 EC?? F???      00037     call    DELAY_100ms
000BF8 9689           00038     bcf     led_blanco
000BFA 0012           00039     return
                      00040  
000BFC                00041 ON_BLUE
000BFC 8089           00042     bsf     led_azul
000BFE EC?? F???      00043     call    DELAY_100ms
000C02 EC?? F???      00044     call    DELAY_100ms
000C06 EC?? F???      00045     call    DELAY_100ms
000C0A EC?? F???      00046     call    DELAY_100ms
000C0E EC?? F???      00047     call    DELAY_100ms
000C12 9089           00048     bcf     led_azul
000C14 0012           00049     return
                      00050     
000C16                00051 ON_YELLOW
000C16 8289           00052     bsf     led_amarillo
000C18 EC?? F???      00053     call    DELAY_100ms
000C1C EC?? F???      00054     call    DELAY_100ms
000C20 EC?? F???      00055     call    DELAY_100ms
000C24 EC?? F???      00056     call    DELAY_100ms
000C28 EC?? F???      00057     call    DELAY_100ms
000C2C 9289           00058     bcf     led_amarillo
000C2E 0012           00059     return
                      00060     
                      00061     
000C30                00062 RANDOM_REGISTER ; REGRESA CON UN NUEVO VALOR EN REGISTRO SHIFTER 00,01,10,11
000C30 6A09           00063     clrf    shifter
000C32 50BC           00064     movf    TMR2, W, A
000C34 B0E8           00065     btfsc   WREG, 0, A
000C36 8009           00066     bsf     shifter, 0, A
000C38 B2E8           00067     btfsc   WREG, 1, A
000C3A 8209           00068     bsf     shifter, 1, A
000C3C                00069 DECODER ; PONE sec_aleatoria EN LA MISMA CONFIG QUE boton_presionado
000C3C 6A0C           00070     clrf    sec_aleatoria
000C3E 5009           00071     movf    shifter, W, A 
000C40 A4D8           00072     btfss   STATUS, 2, A                ; checa si es 00
000C42 EF?? F???      00073     goto    LED_01
000C46 800C           00074     bsf     sec_aleatoria, 0, A         ; significa que 00 -> led azul es el esperado "0001"
000C48 0012           00075     return
                      00076     
000C4A                00077 LED_01
000C4A 5009           00078     movf    shifter, W, A 
000C4C 0801           00079     sublw   .1
000C4E A4D8           00080     btfss   STATUS, 2, A                ; checa si restando 1 se vuelve 0
000C50 EF?? F???      00081     goto    LED_10
000C54 820C           00082     bsf     sec_aleatoria, 1, A ; significa que 01 -> led amar es el esperado "0010"
000C56 0012           00083     return
                      00084     
000C58                00085 LED_10 
000C58 5009           00086     movf    shifter, W, A 
000C5A 0802           00087     sublw   .2
000C5C A4D8           00088     btfss   STATUS, 2, A                ; checa si restando 1 se vuelve 0
000C5E EF?? F???      00089     goto    LED_11
MPASM 5.87                          MAIN.ASM   11-16-2021  2:06:39         PAGE 28


LOC  OBJECT CODE     LINE SOURCE TEXT
  VALUE

000C62 840C           00090     bsf     sec_aleatoria, 2, A ; significa que 01 -> led naranj es el esperado "0100"
000C64 0012           00091     return
                      00092 
000C66                00093 LED_11 
000C66 860C           00094     bsf     sec_aleatoria, 3, A ; significa que 11 -> led blanco es el esperado "1000"
000C68 0012           00095     return
                      00096 
000C6A                00097 ENCENDER_SECUENCIA 
000C6A B00B           00098     btfsc   encender_led, 0 , A
000C6C EC?? F???      00099     call    ON_BLUE
000C70 B20B           00100     btfsc   encender_led, 1,  A
000C72 EC?? F???      00101     call    ON_YELLOW
000C76 B40B           00102     btfsc   encender_led, 2,  A
000C78 EC?? F???      00103     call    ON_ORANGE
000C7C B60B           00104     btfsc   encender_led, 3,  A
000C7E EC?? F???      00105     call    ON_WHITE
000C82 0012           00106     return
                      00007 #include "eeprom_subrutinas.asm"
000C84                00001 WRITE_EEPROM_GAME ; se implementa lectura tambien para recorrer las ultimas dos y poder sobreescribir la
                             mas reciente
000C84 0E03           00002     movlw .3
000C86 6EA9           00003     movwf EEADR, A
                      00004     ; Protocolo lectura
000C88 80A6           00005     bsf EECON1, 0, A ;habilitar lectura
000C8A CFA8 F024      00006     movff EEDATA, temp_eeprom1 ; se guarda la part mas reciente en una var temp
000C8E 0E02           00007     movlw .2
000C90 6EA9           00008     movwf EEADR, A
000C92 80A6           00009     bsf  EECON1, 0, A ;habilitar lectura
000C94 CFA8 F025      00010     movff EEDATA, temp_eeprom2 ; se guarda la 2nda part mas reciente en una var temp
000C98 90A6           00011     bcf EECON1, 0 , A ; se inhabilita la lectura
                      00012     ; se inicia sobreescritura
000C9A                00013 actualizar3_reciente
000C9A 0E03           00014     movlw .3
000C9C 6EA9           00015     movwf EEADR, A
000C9E 5005           00016     movf puntaje, A
000CA0 6EA8           00017     movwf EEDATA, A ; pasamos el puntaje obtenido hasta ese punto al EEDATA
000CA2 EC?? F???      00018     call protocolo_escritura_eeprom ; se realiza el protocolo y se escribe
                      00019     ; checa si se copio el valor correcto
000CA6 5005           00020     movf puntaje,  A
000CA8 80A6           00021     bsf EECON1 , 0, A ; habilita lectura del .3 recien agregado
000CAA 5CA8           00022     subwf EEDATA, W, A ; resta lectura - puntaje para verificar
000CAC A4D8           00023     btfss STATUS, 2, A ; checa si la resta da 0 == iguales
000CAE EF?? F???      00024     goto actualizar3_reciente ; si no son iguales , reintenta escritura
000CB2                00025 actualizar_2reciente    
000CB2 0E02           00026     movlw .2
000CB4 6EA9           00027     movwf EEADR, A
000CB6 5024           00028     movf temp_eeprom1, A
000CB8 6EA8           00029     movwf EEDATA, A ; recorrido del 3 al 2, guardada anteriormente
000CBA EC?? F???      00030     call protocolo_escritura_eeprom ; se realiza protocolo y se escribe
                      00031     ;checa si se copio el valor correcto
000CBE 5024           00032     movf temp_eeprom1, A
000CC0 80A6           00033     bsf EECON1 , 0, A ; habilita lectura del .2 recien agregado
000CC2 5CA8           00034     subwf EEDATA, W, A ; resta lectura - temp registro 2 para verificar
MPASM 5.87                          MAIN.ASM   11-16-2021  2:06:39         PAGE 29


LOC  OBJECT CODE     LINE SOURCE TEXT
  VALUE

000CC4 A4D8           00035     btfss STATUS, 2, A ; checa si la resta da 0 == iguales
000CC6 EF?? F???      00036     goto actualizar_2reciente ; si no son iguales , reintenta escritura
000CCA                00037 actualizar1_reciente    
000CCA 0E01           00038     movlw .1
000CCC 6EA9           00039     movwf EEADR, A
000CCE 5025           00040     movf temp_eeprom2, A
000CD0 6EA8           00041     movwf EEDATA, A ; recorrido del 2 al 1, guardada anteriormente
000CD2 EC?? F???      00042     call protocolo_escritura_eeprom ; se realiza protocolo y se escribe
                      00043     ;checa si se copio el valor correcto
000CD6 5025           00044     movf temp_eeprom2, A
000CD8 80A6           00045     bsf EECON1 , 0, A ; habilita lectura del .1 recien agregado
000CDA 5CA8           00046     subwf EEDATA, W, A ; resta lectura - temp registro 1 para verificar
000CDC A4D8           00047     btfss STATUS, 2, A ; checa si la resta da 0 == iguales
000CDE EF?? F???      00048     goto actualizar1_reciente ; si no son iguales , reintenta escritura
000CE2 0012           00049     return
                      00050    
000CE4                00051 protocolo_escritura_eeprom
000CE4 84A6           00052     bsf EECON1, 2, A ; habilitamos Write
000CE6 0E55           00053     movlw 0x55 ; Contraseñas del protocolo write
000CE8 6EA7           00054     movwf EECON2, A
000CEA 0EAA           00055     movlw 0xAA 
000CEC 6EA7           00056     movwf EECON2, A
000CEE 82A6           00057     bsf EECON1, WR, A ; Empieza a escribir
000CF0                00058 waitwrite
000CF0 B2A6           00059     btfsc EECON1,WR,A ; checa antiflag
000CF2 EF?? F???      00060     goto waitwrite
000CF6 94A6           00061     bcf EECON1 ,2 ,A ; cuando termine disables write
000CF8 6AA8           00062     clrf EEDATA ,A ; limpiar para verificaciones posteriores
000CFA 0012           00063     return
                      00064     
                      00065 ; otra que escriba en el highscore
000CFC                00066 ACTUALIZAR_HIGHSCORE
000CFC 0E00           00067     movlw .0
000CFE 6EA9           00068     movwf EEADR, A
000D00 C005 FFA8      00069     movff puntaje, EEDATA ; pasamos el puntaje obtenido hasta ese punto al EEDATA
000D04 EC?? F???      00070     call  protocolo_escritura_eeprom ; se realiza el protocolo y se escribe
                      00071     ; checa si se copio el valor correcto
000D08 5005           00072     movf  puntaje, W, A
000D0A 9EA6           00073     bcf EECON1, 7, A    ; clear EEPGD control bit
000D0C 80A6           00074     bsf  EECON1 , 0, A ; habilita lectura del .0 recien agregado
000D0E 5CA8           00075     subwf EEDATA, W, A ; resta lectura - puntaje para verificar
000D10 A4D8           00076     btfss STATUS, 2, A ; checa si la resta da 0 == iguales
000D12 EF?? F???      00077     goto ACTUALIZAR_HIGHSCORE ; si no son iguales , reintenta escritura
000D16 6AA8           00078     clrf EEDATA,A
000D18 0012           00079     return
                      00080     
000D1A                00081 VERIFICAR_HIGHSCORE
000D1A 0E00           00082     movlw   .0
000D1C 6EA9           00083     movwf   EEADR, A
000D1E 9EA6           00084     bcf EECON1, 7, A    ; clear EEPGD control bit
000D20 80A6           00085     bsf  EECON1 , 0, A  ; habilita lectura del .0 recien agregado
000D22 50A8           00086     movf    EEDATA,W,  A         ; en este punto el highscore esta en wreg
000D24 5C05           00087     subwf puntaje, W, A ; resta puntaje - highscore
MPASM 5.87                          MAIN.ASM   11-16-2021  2:06:39         PAGE 30


LOC  OBJECT CODE     LINE SOURCE TEXT
  VALUE

000D26 B8D8           00088     btfsc STATUS, 4, A ; checa si la resta da negativo, si + == new hs, si - == no actualizar
000D28 0012           00089     return
000D2A EC?? F???      00090     call ACTUALIZAR_HIGHSCORE
000D2E EC?? F???      00091     call SHOW_HIGHSCORE
000D32 EC?? F???      00092     call DELAY_1s
000D36 0012           00093     return
                      00094     
000D38                00095 BORRAR_EEPROM
000D38 0E00           00096     movlw .0
000D3A 6EA9           00097     movwf EEADR, A
000D3C 6EA8           00098     movwf EEDATA, A ; pasamos al 0x00
000D3E EC?? F???      00099     call  protocolo_escritura_eeprom ; se realiza el protocolo y se escribe
000D42 0E01           00100     movlw .1
000D44 6EA9           00101     movwf EEADR, A ; pasamos el 0x01
000D46 EC?? F???      00102     call  protocolo_escritura_eeprom ; se realiza el protocolo y se escribe
000D4A 0E02           00103     movlw .2
000D4C 6EA9           00104     movwf EEADR, A ; pasamos el 0x02
000D4E EC?? F???      00105     call  protocolo_escritura_eeprom ; se realiza el protocolo y se escribe
000D52 0E03           00106     movlw .3
000D54 6EA9           00107     movwf EEADR, A ; pasamos el 0x03
000D56 EC?? F???      00108     call  protocolo_escritura_eeprom ; se realiza el protocolo y se escribe
000D5A 0012           00109     return
                      00008 
000D5C                00009 MAIN
                      00010     ; Borrar EEPROM (Utilizar solo en caso de ser necesario).
                      00011     ; call    BORRAR_EEPROM
                      00012     ; CONFIGURACION BASICA DE LCD.
000D5C EC?? F???      00013     call    CONFIGURE_LCD
000D60                00014 MENU_PRINCIPAL
000D60 6A0A           00015     clrf    trayectoria
                      00016     ; IMPRIMIR MENU PRINCIPAL.
000D62 EC?? F???      00017     call    SHOW_MAIN_MENU
                      00018     ; REVISAR SI SE PRESIONAN BOTONES DE START/STOP O HIGHSCORE.
000D66 EF?? F???      00019     goto    RECORRIDO_MENU
                      00020     
000D6A                00021 PUNTAJES
                      00022     ; TODO: Mostrar puntajes (proxima entrega).
000D6A EC?? F???      00023     call    SHOW_SCORES_MENU
                      00024     ; REVISAR SI SE PRESIONA START/STOP PARA REGRESAR A MENU PRINCIPAL.
000D6E 0EFB           00025     movlw   b'11111011'                 ; ACTIVAR COLUMNA 1 (verde, naranja).
000D70 6E8A           00026     movwf   LATB, A
000D72                00027 STOP_PUNTAJES
000D72 B081           00028     btfsc   fila1                       ; Revisar si se presiona el boton de START/STOP.
000D74 EF?? F???      00029     goto    STOP_PUNTAJES
000D78                00030 ANTIRREBOTE_PUNTAJES
000D78 A081           00031     btfss   fila1                       ; Revisar si sigue presionado el boton de START/STOP.
000D7A EF?? F???      00032     goto    ANTIRREBOTE_PUNTAJES
000D7E EC?? F???      00033     call    DELAY_20ms
000D82 EF?? F???      00034     goto    MENU_PRINCIPAL
                      00035     
000D86                00036 JUEGO
000D86 0E30           00037     movlw   '0'
000D88 6E05           00038     movwf   puntaje, A
MPASM 5.87                          MAIN.ASM   11-16-2021  2:06:39         PAGE 31


LOC  OBJECT CODE     LINE SOURCE TEXT
  VALUE

000D8A EC?? F???      00039     call    SHOW_PUNTAJE
000D8E                00040 NIVEL1
000D8E EC?? F???      00041     call    RANDOM_REGISTER
000D92 C00C F011      00042     movff   sec_aleatoria, sec1
                      00043     ; MOSTRAR SECUENCIA.
000D96 C011 F00B      00044     movff   sec1, encender_led          ; Mostrarle la secuencia al usuario
000D9A EC?? F???      00045     call    ENCENDER_SECUENCIA
                      00046     
                      00047     ; SECUENCIA 1.
000D9E C011 F007      00048     movff   sec1, boton_esperado
000DA2 EC?? F???      00049     call    TIMER_5s                    ; Revisar si presiona boton correcto/STOP/pasan 5 seg.
000DA6 B00A           00050     btfsc   perdio                      ; Revisa si perdio, en cuyo caso regresa a MENU_PRINCIPAL.
000DA8 EF?? F???      00051     goto    MENU_PRINCIPAL
000DAC 6A0A           00052     clrf    trayectoria                 ; Preparacion para siguiente secuencia.
                      00053     
                      00054     ; NIVEL SUPERADO.
000DAE 0E31           00055     movlw   '1'
000DB0 6E05           00056     movwf   puntaje, A
000DB2 EC?? F???      00057     call    NIVEL_SUPERADO
                      00058     
000DB6                00059 NIVEL2
000DB6 EC?? F???      00060     call    RANDOM_REGISTER
000DBA C00C F012      00061     movff   sec_aleatoria, sec2
                      00062     ; MOSTRAR SECUENCIA.
000DBE C011 F00B      00063     movff   sec1, encender_led          ; Mostrarle la secuencia al usuario
000DC2 EC?? F???      00064     call    ENCENDER_SECUENCIA
000DC6 EC?? F???      00065     call    DELAY_100ms
000DCA C012 F00B      00066     movff   sec2, encender_led          ; Mostrarle la secuencia al usuario
000DCE EC?? F???      00067     call    ENCENDER_SECUENCIA
                      00068     
                      00069     ; SECUENCIA 1.
000DD2 C011 F007      00070     movff   sec1, boton_esperado
000DD6 EC?? F???      00071     call    TIMER_5s                    ; Revisar si presiona boton correcto/STOP/pasan 5 seg.
000DDA B00A           00072     btfsc   perdio                      ; Revisa si perdio, en cuyo caso regresa a MENU_PRINCIPAL.
000DDC EF?? F???      00073     goto    MENU_PRINCIPAL
000DE0 6A0A           00074     clrf    trayectoria                 ; Preparacion para siguiente secuencia.
                      00075     ; SECUENCIA 2.
000DE2 C012 F007      00076     movff   sec2, boton_esperado
000DE6 EC?? F???      00077     call    TIMER_5s                    ; Revisar si presiona boton correcto/STOP/pasan 5 seg.
000DEA B00A           00078     btfsc   perdio                      ; Revisa si perdio, en cuyo caso regresa a MENU_PRINCIPAL.
000DEC EF?? F???      00079     goto    MENU_PRINCIPAL
000DF0 6A0A           00080     clrf    trayectoria                 ; Preparacion para siguiente secuencia.
                      00081     
                      00082     ; NIVEL SUPERADO.
000DF2 0E32           00083     movlw   '2'
000DF4 6E05           00084     movwf   puntaje, A
000DF6 EC?? F???      00085     call    NIVEL_SUPERADO
                      00086     
000DFA                00087 NIVEL3
000DFA EC?? F???      00088     call    RANDOM_REGISTER
000DFE C00C F013      00089     movff   sec_aleatoria, sec3
                      00090     ; MOSTRAR SECUENCIA.
000E02 C011 F00B      00091     movff   sec1, encender_led          ; Mostrarle la secuencia al usuario
MPASM 5.87                          MAIN.ASM   11-16-2021  2:06:39         PAGE 32


LOC  OBJECT CODE     LINE SOURCE TEXT
  VALUE

000E06 EC?? F???      00092     call    ENCENDER_SECUENCIA
000E0A EC?? F???      00093     call    DELAY_100ms
000E0E C012 F00B      00094     movff   sec2, encender_led          ; Mostrarle la secuencia al usuario
000E12 EC?? F???      00095     call    ENCENDER_SECUENCIA
000E16 EC?? F???      00096     call    DELAY_100ms
000E1A C013 F00B      00097     movff   sec3, encender_led          ; Mostrarle la secuencia al usuario
000E1E EC?? F???      00098     call    ENCENDER_SECUENCIA
                      00099     
                      00100     ; SECUENCIA 1.
000E22 C011 F007      00101     movff   sec1, boton_esperado
000E26 EC?? F???      00102     call    TIMER_5s                    ; Revisar si presiona boton correcto/STOP/pasan 5 seg.
000E2A B00A           00103     btfsc   perdio                      ; Revisa si perdio, en cuyo caso regresa a MENU_PRINCIPAL.
000E2C EF?? F???      00104     goto    MENU_PRINCIPAL
000E30 6A0A           00105     clrf    trayectoria                 ; Preparacion para siguiente secuencia.
                      00106     ; SECUENCIA 2.
000E32 C012 F007      00107     movff   sec2, boton_esperado
000E36 EC?? F???      00108     call    TIMER_5s                    ; Revisar si presiona boton correcto/STOP/pasan 5 seg.
000E3A B00A           00109     btfsc   perdio                      ; Revisa si perdio, en cuyo caso regresa a MENU_PRINCIPAL.
000E3C EF?? F???      00110     goto    MENU_PRINCIPAL
000E40 6A0A           00111     clrf    trayectoria                 ; Preparacion para siguiente secuencia.
                      00112     ; SECUENCIA 3.
000E42 C013 F007      00113     movff   sec3, boton_esperado
000E46 EC?? F???      00114     call    TIMER_5s                    ; Revisar si presiona boton correcto/STOP/pasan 5 seg.
000E4A B00A           00115     btfsc   perdio                      ; Revisa si perdio, en cuyo caso regresa a MENU_PRINCIPAL.
000E4C EF?? F???      00116     goto    MENU_PRINCIPAL
000E50 6A0A           00117     clrf    trayectoria                 ; Preparacion para siguiente secuencia.
                      00118     
                      00119     ; NIVEL SUPERADO.
000E52 0E33           00120     movlw   '3'
000E54 6E05           00121     movwf   puntaje, A
000E56 EC?? F???      00122     call    NIVEL_SUPERADO
                      00123     
000E5A                00124 NIVEL4
000E5A EC?? F???      00125     call    RANDOM_REGISTER
000E5E C00C F014      00126     movff   sec_aleatoria, sec4
                      00127     ; MOSTRAR SECUENCIA.
000E62 C011 F00B      00128     movff   sec1, encender_led          ; Mostrarle la secuencia al usuario
000E66 EC?? F???      00129     call    ENCENDER_SECUENCIA
000E6A EC?? F???      00130     call    DELAY_100ms
000E6E C012 F00B      00131     movff   sec2, encender_led          ; Mostrarle la secuencia al usuario
000E72 EC?? F???      00132     call    ENCENDER_SECUENCIA
000E76 EC?? F???      00133     call    DELAY_100ms
000E7A C013 F00B      00134     movff   sec3, encender_led          ; Mostrarle la secuencia al usuario
000E7E EC?? F???      00135     call    ENCENDER_SECUENCIA
000E82 EC?? F???      00136     call    DELAY_100ms
000E86 C014 F00B      00137     movff   sec4, encender_led          ; Mostrarle la secuencia al usuario
000E8A EC?? F???      00138     call    ENCENDER_SECUENCIA
                      00139     
                      00140     ; SECUENCIA 1.
000E8E C011 F007      00141     movff   sec1, boton_esperado
000E92 EC?? F???      00142     call    TIMER_5s                    ; Revisar si presiona boton correcto/STOP/pasan 5 seg.
000E96 B00A           00143     btfsc   perdio                      ; Revisa si perdio, en cuyo caso regresa a MENU_PRINCIPAL.
000E98 EF?? F???      00144     goto    MENU_PRINCIPAL
MPASM 5.87                          MAIN.ASM   11-16-2021  2:06:39         PAGE 33


LOC  OBJECT CODE     LINE SOURCE TEXT
  VALUE

000E9C 6A0A           00145     clrf    trayectoria                 ; Preparacion para siguiente secuencia.
                      00146     ; SECUENCIA 2.
000E9E C012 F007      00147     movff   sec2, boton_esperado
000EA2 EC?? F???      00148     call    TIMER_5s                    ; Revisar si presiona boton correcto/STOP/pasan 5 seg.
000EA6 B00A           00149     btfsc   perdio                      ; Revisa si perdio, en cuyo caso regresa a MENU_PRINCIPAL.
000EA8 EF?? F???      00150     goto    MENU_PRINCIPAL
000EAC 6A0A           00151     clrf    trayectoria                 ; Preparacion para siguiente secuencia.
                      00152     ; SECUENCIA 3.
000EAE C013 F007      00153     movff   sec3, boton_esperado
000EB2 EC?? F???      00154     call    TIMER_5s                    ; Revisar si presiona boton correcto/STOP/pasan 5 seg.
000EB6 B00A           00155     btfsc   perdio                      ; Revisa si perdio, en cuyo caso regresa a MENU_PRINCIPAL.
000EB8 EF?? F???      00156     goto    MENU_PRINCIPAL
000EBC 6A0A           00157     clrf    trayectoria                 ; Preparacion para siguiente secuencia.
                      00158     ; SECUENCIA 4.
000EBE C014 F007      00159     movff   sec4, boton_esperado
000EC2 EC?? F???      00160     call    TIMER_5s                    ; Revisar si presiona boton correcto/STOP/pasan 5 seg.
000EC6 B00A           00161     btfsc   perdio                      ; Revisa si perdio, en cuyo caso regresa a MENU_PRINCIPAL.
000EC8 EF?? F???      00162     goto    MENU_PRINCIPAL
000ECC 6A0A           00163     clrf    trayectoria                 ; Preparacion para siguiente secuencia.
                      00164     
                      00165     ; NIVEL SUPERADO.
000ECE 0E34           00166     movlw   '4'
000ED0 6E05           00167     movwf   puntaje, A
000ED2 EC?? F???      00168     call    NIVEL_SUPERADO
                      00169     
000ED6                00170 NIVEL5
000ED6 EC?? F???      00171     call    RANDOM_REGISTER
000EDA C00C F015      00172     movff   sec_aleatoria, sec5
                      00173     ; MOSTRAR SECUENCIA.
000EDE C011 F00B      00174     movff   sec1, encender_led          ; Mostrarle la secuencia al usuario
000EE2 EC?? F???      00175     call    ENCENDER_SECUENCIA
000EE6 EC?? F???      00176     call    DELAY_100ms
000EEA C012 F00B      00177     movff   sec2, encender_led          ; Mostrarle la secuencia al usuario
000EEE EC?? F???      00178     call    ENCENDER_SECUENCIA
000EF2 EC?? F???      00179     call    DELAY_100ms
000EF6 C013 F00B      00180     movff   sec3, encender_led          ; Mostrarle la secuencia al usuario
000EFA EC?? F???      00181     call    ENCENDER_SECUENCIA
000EFE EC?? F???      00182     call    DELAY_100ms
000F02 C014 F00B      00183     movff   sec4, encender_led          ; Mostrarle la secuencia al usuario
000F06 EC?? F???      00184     call    ENCENDER_SECUENCIA
000F0A EC?? F???      00185     call    DELAY_100ms
000F0E C015 F00B      00186     movff   sec5, encender_led          ; Mostrarle la secuencia al usuario
000F12 EC?? F???      00187     call    ENCENDER_SECUENCIA
                      00188     
                      00189     ; SECUENCIA 1.
000F16 C011 F007      00190     movff   sec1, boton_esperado
000F1A EC?? F???      00191     call    TIMER_5s                    ; Revisar si presiona boton correcto/STOP/pasan 5 seg.
000F1E B00A           00192     btfsc   perdio                      ; Revisa si perdio, en cuyo caso regresa a MENU_PRINCIPAL.
000F20 EF?? F???      00193     goto    MENU_PRINCIPAL
000F24 6A0A           00194     clrf    trayectoria                 ; Preparacion para siguiente secuencia.
                      00195     ; SECUENCIA 2.
000F26 C012 F007      00196     movff   sec2, boton_esperado
000F2A EC?? F???      00197     call    TIMER_5s                    ; Revisar si presiona boton correcto/STOP/pasan 5 seg.
MPASM 5.87                          MAIN.ASM   11-16-2021  2:06:39         PAGE 34


LOC  OBJECT CODE     LINE SOURCE TEXT
  VALUE

000F2E B00A           00198     btfsc   perdio                      ; Revisa si perdio, en cuyo caso regresa a MENU_PRINCIPAL.
000F30 EF?? F???      00199     goto    MENU_PRINCIPAL
000F34 6A0A           00200     clrf    trayectoria                 ; Preparacion para siguiente secuencia.
                      00201     ; SECUENCIA 3.
000F36 C013 F007      00202     movff   sec3, boton_esperado
000F3A EC?? F???      00203     call    TIMER_5s                    ; Revisar si presiona boton correcto/STOP/pasan 5 seg.
000F3E B00A           00204     btfsc   perdio                      ; Revisa si perdio, en cuyo caso regresa a MENU_PRINCIPAL.
000F40 EF?? F???      00205     goto    MENU_PRINCIPAL
000F44 6A0A           00206     clrf    trayectoria                 ; Preparacion para siguiente secuencia.
                      00207     ; SECUENCIA 4.
000F46 C014 F007      00208     movff   sec4, boton_esperado
000F4A EC?? F???      00209     call    TIMER_5s                    ; Revisar si presiona boton correcto/STOP/pasan 5 seg.
000F4E B00A           00210     btfsc   perdio                      ; Revisa si perdio, en cuyo caso regresa a MENU_PRINCIPAL.
000F50 EF?? F???      00211     goto    MENU_PRINCIPAL
000F54 6A0A           00212     clrf    trayectoria                 ; Preparacion para siguiente secuencia.
                      00213     ; SECUENCIA 5.
000F56 C015 F007      00214     movff   sec5, boton_esperado
000F5A EC?? F???      00215     call    TIMER_5s                    ; Revisar si presiona boton correcto/STOP/pasan 5 seg.
000F5E B00A           00216     btfsc   perdio                      ; Revisa si perdio, en cuyo caso regresa a MENU_PRINCIPAL.
000F60 EF?? F???      00217     goto    MENU_PRINCIPAL
000F64 6A0A           00218     clrf    trayectoria                 ; Preparacion para siguiente secuencia.
                      00219     
                      00220     ; NIVEL SUPERADO.
000F66 0E35           00221     movlw   '5'
000F68 6E05           00222     movwf   puntaje, A
000F6A EC?? F???      00223     call    NIVEL_SUPERADO
                      00224     
000F6E                00225 NIVEL6
000F6E EC?? F???      00226     call    RANDOM_REGISTER
000F72 C00C F016      00227     movff   sec_aleatoria, sec6
                      00228     ; MOSTRAR SECUENCIA.
000F76 C011 F00B      00229     movff   sec1, encender_led          ; Mostrarle la secuencia al usuario
000F7A EC?? F???      00230     call    ENCENDER_SECUENCIA
000F7E EC?? F???      00231     call    DELAY_100ms
000F82 C012 F00B      00232     movff   sec2, encender_led          ; Mostrarle la secuencia al usuario
000F86 EC?? F???      00233     call    ENCENDER_SECUENCIA
000F8A EC?? F???      00234     call    DELAY_100ms
000F8E C013 F00B      00235     movff   sec3, encender_led          ; Mostrarle la secuencia al usuario
000F92 EC?? F???      00236     call    ENCENDER_SECUENCIA
000F96 EC?? F???      00237     call    DELAY_100ms
000F9A C014 F00B      00238     movff   sec4, encender_led          ; Mostrarle la secuencia al usuario
000F9E EC?? F???      00239     call    ENCENDER_SECUENCIA
000FA2 EC?? F???      00240     call    DELAY_100ms
000FA6 C015 F00B      00241     movff   sec5, encender_led          ; Mostrarle la secuencia al usuario
000FAA EC?? F???      00242     call    ENCENDER_SECUENCIA
000FAE EC?? F???      00243     call    DELAY_100ms
000FB2 C016 F00B      00244     movff   sec6, encender_led          ; Mostrarle la secuencia al usuario
000FB6 EC?? F???      00245     call    ENCENDER_SECUENCIA
                      00246     
                      00247     ; SECUENCIA 1.
000FBA C011 F007      00248     movff   sec1, boton_esperado
000FBE EC?? F???      00249     call    TIMER_5s                    ; Revisar si presiona boton correcto/STOP/pasan 5 seg.
000FC2 B00A           00250     btfsc   perdio                      ; Revisa si perdio, en cuyo caso regresa a MENU_PRINCIPAL.
MPASM 5.87                          MAIN.ASM   11-16-2021  2:06:39         PAGE 35


LOC  OBJECT CODE     LINE SOURCE TEXT
  VALUE

000FC4 EF?? F???      00251     goto    MENU_PRINCIPAL
000FC8 6A0A           00252     clrf    trayectoria                 ; Preparacion para siguiente secuencia.
                      00253     ; SECUENCIA 2.
000FCA C012 F007      00254     movff   sec2, boton_esperado
000FCE EC?? F???      00255     call    TIMER_5s                    ; Revisar si presiona boton correcto/STOP/pasan 5 seg.
000FD2 B00A           00256     btfsc   perdio                      ; Revisa si perdio, en cuyo caso regresa a MENU_PRINCIPAL.
000FD4 EF?? F???      00257     goto    MENU_PRINCIPAL
000FD8 6A0A           00258     clrf    trayectoria                 ; Preparacion para siguiente secuencia.
                      00259     ; SECUENCIA 3.
000FDA C013 F007      00260     movff   sec3, boton_esperado
000FDE EC?? F???      00261     call    TIMER_5s                    ; Revisar si presiona boton correcto/STOP/pasan 5 seg.
000FE2 B00A           00262     btfsc   perdio                      ; Revisa si perdio, en cuyo caso regresa a MENU_PRINCIPAL.
000FE4 EF?? F???      00263     goto    MENU_PRINCIPAL
000FE8 6A0A           00264     clrf    trayectoria                 ; Preparacion para siguiente secuencia.
                      00265     ; SECUENCIA 4.
000FEA C014 F007      00266     movff   sec4, boton_esperado
000FEE EC?? F???      00267     call    TIMER_5s                    ; Revisar si presiona boton correcto/STOP/pasan 5 seg.
000FF2 B00A           00268     btfsc   perdio                      ; Revisa si perdio, en cuyo caso regresa a MENU_PRINCIPAL.
000FF4 EF?? F???      00269     goto    MENU_PRINCIPAL
000FF8 6A0A           00270     clrf    trayectoria                 ; Preparacion para siguiente secuencia.
                      00271     ; SECUENCIA 5.
000FFA C015 F007      00272     movff   sec5, boton_esperado
000FFE EC?? F???      00273     call    TIMER_5s                    ; Revisar si presiona boton correcto/STOP/pasan 5 seg.
001002 B00A           00274     btfsc   perdio                      ; Revisa si perdio, en cuyo caso regresa a MENU_PRINCIPAL.
001004 EF?? F???      00275     goto    MENU_PRINCIPAL
001008 6A0A           00276     clrf    trayectoria                 ; Preparacion para siguiente secuencia.
                      00277     ; SECUENCIA 6.
00100A C016 F007      00278     movff   sec6, boton_esperado
00100E EC?? F???      00279     call    TIMER_5s                    ; Revisar si presiona boton correcto/STOP/pasan 5 seg.
001012 B00A           00280     btfsc   perdio                      ; Revisa si perdio, en cuyo caso regresa a MENU_PRINCIPAL.
001014 EF?? F???      00281     goto    MENU_PRINCIPAL
001018 6A0A           00282     clrf    trayectoria                 ; Preparacion para siguiente secuencia.
                      00283     
                      00284     ; NIVEL SUPERADO.
00101A 0E36           00285     movlw   '6'
00101C 6E05           00286     movwf   puntaje, A
00101E EC?? F???      00287     call    NIVEL_SUPERADO
                      00288     
001022                00289 NIVEL7
001022 EC?? F???      00290     call    RANDOM_REGISTER
001026 C00C F017      00291     movff   sec_aleatoria, sec7
                      00292     ; MOSTRAR SECUENCIA.
00102A C011 F00B      00293     movff   sec1, encender_led          ; Mostrarle la secuencia al usuario
00102E EC?? F???      00294     call    ENCENDER_SECUENCIA
001032 EC?? F???      00295     call    DELAY_100ms
001036 C012 F00B      00296     movff   sec2, encender_led          ; Mostrarle la secuencia al usuario
00103A EC?? F???      00297     call    ENCENDER_SECUENCIA
00103E EC?? F???      00298     call    DELAY_100ms
001042 C013 F00B      00299     movff   sec3, encender_led          ; Mostrarle la secuencia al usuario
001046 EC?? F???      00300     call    ENCENDER_SECUENCIA
00104A EC?? F???      00301     call    DELAY_100ms
00104E C014 F00B      00302     movff   sec4, encender_led          ; Mostrarle la secuencia al usuario
001052 EC?? F???      00303     call    ENCENDER_SECUENCIA
MPASM 5.87                          MAIN.ASM   11-16-2021  2:06:39         PAGE 36


LOC  OBJECT CODE     LINE SOURCE TEXT
  VALUE

001056 EC?? F???      00304     call    DELAY_100ms
00105A C015 F00B      00305     movff   sec5, encender_led          ; Mostrarle la secuencia al usuario
00105E EC?? F???      00306     call    ENCENDER_SECUENCIA
001062 EC?? F???      00307     call    DELAY_100ms
001066 C016 F00B      00308     movff   sec6, encender_led          ; Mostrarle la secuencia al usuario
00106A EC?? F???      00309     call    ENCENDER_SECUENCIA
00106E EC?? F???      00310     call    DELAY_100ms
001072 C017 F00B      00311     movff   sec7, encender_led          ; Mostrarle la secuencia al usuario
001076 EC?? F???      00312     call    ENCENDER_SECUENCIA
                      00313     
                      00314     ; SECUENCIA 1.
00107A C011 F007      00315     movff   sec1, boton_esperado
00107E EC?? F???      00316     call    TIMER_5s                    ; Revisar si presiona boton correcto/STOP/pasan 5 seg.
001082 B00A           00317     btfsc   perdio                      ; Revisa si perdio, en cuyo caso regresa a MENU_PRINCIPAL.
001084 EF?? F???      00318     goto    MENU_PRINCIPAL
001088 6A0A           00319     clrf    trayectoria                 ; Preparacion para siguiente secuencia.
                      00320     ; SECUENCIA 2.
00108A C012 F007      00321     movff   sec2, boton_esperado
00108E EC?? F???      00322     call    TIMER_5s                    ; Revisar si presiona boton correcto/STOP/pasan 5 seg.
001092 B00A           00323     btfsc   perdio                      ; Revisa si perdio, en cuyo caso regresa a MENU_PRINCIPAL.
001094 EF?? F???      00324     goto    MENU_PRINCIPAL
001098 6A0A           00325     clrf    trayectoria                 ; Preparacion para siguiente secuencia.
                      00326     ; SECUENCIA 3.
00109A C013 F007      00327     movff   sec3, boton_esperado
00109E EC?? F???      00328     call    TIMER_5s                    ; Revisar si presiona boton correcto/STOP/pasan 5 seg.
0010A2 B00A           00329     btfsc   perdio                      ; Revisa si perdio, en cuyo caso regresa a MENU_PRINCIPAL.
0010A4 EF?? F???      00330     goto    MENU_PRINCIPAL
0010A8 6A0A           00331     clrf    trayectoria                 ; Preparacion para siguiente secuencia.
                      00332     ; SECUENCIA 4.
0010AA C014 F007      00333     movff   sec4, boton_esperado
0010AE EC?? F???      00334     call    TIMER_5s                    ; Revisar si presiona boton correcto/STOP/pasan 5 seg.
0010B2 B00A           00335     btfsc   perdio                      ; Revisa si perdio, en cuyo caso regresa a MENU_PRINCIPAL.
0010B4 EF?? F???      00336     goto    MENU_PRINCIPAL
0010B8 6A0A           00337     clrf    trayectoria                 ; Preparacion para siguiente secuencia.
                      00338     ; SECUENCIA 5.
0010BA C015 F007      00339     movff   sec5, boton_esperado
0010BE EC?? F???      00340     call    TIMER_5s                    ; Revisar si presiona boton correcto/STOP/pasan 5 seg.
0010C2 B00A           00341     btfsc   perdio                      ; Revisa si perdio, en cuyo caso regresa a MENU_PRINCIPAL.
0010C4 EF?? F???      00342     goto    MENU_PRINCIPAL
0010C8 6A0A           00343     clrf    trayectoria                 ; Preparacion para siguiente secuencia.
                      00344     ; SECUENCIA 6.
0010CA C016 F007      00345     movff   sec6, boton_esperado
0010CE EC?? F???      00346     call    TIMER_5s                    ; Revisar si presiona boton correcto/STOP/pasan 5 seg.
0010D2 B00A           00347     btfsc   perdio                      ; Revisa si perdio, en cuyo caso regresa a MENU_PRINCIPAL.
0010D4 EF?? F???      00348     goto    MENU_PRINCIPAL
0010D8 6A0A           00349     clrf    trayectoria                 ; Preparacion para siguiente secuencia.
                      00350     ; SECUENCIA 7.
0010DA C017 F007      00351     movff   sec7, boton_esperado
0010DE EC?? F???      00352     call    TIMER_5s                    ; Revisar si presiona boton correcto/STOP/pasan 5 seg.
0010E2 B00A           00353     btfsc   perdio                      ; Revisa si perdio, en cuyo caso regresa a MENU_PRINCIPAL.
0010E4 EF?? F???      00354     goto    MENU_PRINCIPAL
0010E8 6A0A           00355     clrf    trayectoria                 ; Preparacion para siguiente secuencia.
                      00356     
MPASM 5.87                          MAIN.ASM   11-16-2021  2:06:39         PAGE 37


LOC  OBJECT CODE     LINE SOURCE TEXT
  VALUE

                      00357     ; NIVEL SUPERADO.
0010EA 0E37           00358     movlw   '7'
0010EC 6E05           00359     movwf   puntaje, A
0010EE EC?? F???      00360     call    NIVEL_SUPERADO
                      00361     
0010F2                00362 NIVEL8
0010F2 EC?? F???      00363     call    RANDOM_REGISTER
0010F6 C00C F018      00364     movff   sec_aleatoria, sec8
                      00365     ; MOSTRAR SECUENCIA.
0010FA C011 F00B      00366     movff   sec1, encender_led          ; Mostrarle la secuencia al usuario
0010FE EC?? F???      00367     call    ENCENDER_SECUENCIA
001102 EC?? F???      00368     call    DELAY_100ms
001106 C012 F00B      00369     movff   sec2, encender_led          ; Mostrarle la secuencia al usuario
00110A EC?? F???      00370     call    ENCENDER_SECUENCIA
00110E EC?? F???      00371     call    DELAY_100ms
001112 C013 F00B      00372     movff   sec3, encender_led          ; Mostrarle la secuencia al usuario
001116 EC?? F???      00373     call    ENCENDER_SECUENCIA
00111A EC?? F???      00374     call    DELAY_100ms
00111E C014 F00B      00375     movff   sec4, encender_led          ; Mostrarle la secuencia al usuario
001122 EC?? F???      00376     call    ENCENDER_SECUENCIA
001126 EC?? F???      00377     call    DELAY_100ms
00112A C015 F00B      00378     movff   sec5, encender_led          ; Mostrarle la secuencia al usuario
00112E EC?? F???      00379     call    ENCENDER_SECUENCIA
001132 EC?? F???      00380     call    DELAY_100ms
001136 C016 F00B      00381     movff   sec6, encender_led          ; Mostrarle la secuencia al usuario
00113A EC?? F???      00382     call    ENCENDER_SECUENCIA
00113E EC?? F???      00383     call    DELAY_100ms
001142 C017 F00B      00384     movff   sec7, encender_led          ; Mostrarle la secuencia al usuario
001146 EC?? F???      00385     call    ENCENDER_SECUENCIA
00114A EC?? F???      00386     call    DELAY_100ms
00114E C018 F00B      00387     movff   sec8, encender_led          ; Mostrarle la secuencia al usuario
001152 EC?? F???      00388     call    ENCENDER_SECUENCIA
                      00389     
                      00390     ; SECUENCIA 1.
001156 C011 F007      00391     movff   sec1, boton_esperado
00115A EC?? F???      00392     call    TIMER_5s                    ; Revisar si presiona boton correcto/STOP/pasan 5 seg.
00115E B00A           00393     btfsc   perdio                      ; Revisa si perdio, en cuyo caso regresa a MENU_PRINCIPAL.
001160 EF?? F???      00394     goto    MENU_PRINCIPAL
001164 6A0A           00395     clrf    trayectoria                 ; Preparacion para siguiente secuencia.
                      00396     ; SECUENCIA 2.
001166 C012 F007      00397     movff   sec2, boton_esperado
00116A EC?? F???      00398     call    TIMER_5s                    ; Revisar si presiona boton correcto/STOP/pasan 5 seg.
00116E B00A           00399     btfsc   perdio                      ; Revisa si perdio, en cuyo caso regresa a MENU_PRINCIPAL.
001170 EF?? F???      00400     goto    MENU_PRINCIPAL
001174 6A0A           00401     clrf    trayectoria                 ; Preparacion para siguiente secuencia.
                      00402     ; SECUENCIA 3.
001176 C013 F007      00403     movff   sec3, boton_esperado
00117A EC?? F???      00404     call    TIMER_5s                    ; Revisar si presiona boton correcto/STOP/pasan 5 seg.
00117E B00A           00405     btfsc   perdio                      ; Revisa si perdio, en cuyo caso regresa a MENU_PRINCIPAL.
001180 EF?? F???      00406     goto    MENU_PRINCIPAL
001184 6A0A           00407     clrf    trayectoria                 ; Preparacion para siguiente secuencia.
                      00408     ; SECUENCIA 4.
001186 C014 F007      00409     movff   sec4, boton_esperado
MPASM 5.87                          MAIN.ASM   11-16-2021  2:06:39         PAGE 38


LOC  OBJECT CODE     LINE SOURCE TEXT
  VALUE

00118A EC?? F???      00410     call    TIMER_5s                    ; Revisar si presiona boton correcto/STOP/pasan 5 seg.
00118E B00A           00411     btfsc   perdio                      ; Revisa si perdio, en cuyo caso regresa a MENU_PRINCIPAL.
001190 EF?? F???      00412     goto    MENU_PRINCIPAL
001194 6A0A           00413     clrf    trayectoria                 ; Preparacion para siguiente secuencia.
                      00414     ; SECUENCIA 5.
001196 C015 F007      00415     movff   sec5, boton_esperado
00119A EC?? F???      00416     call    TIMER_5s                    ; Revisar si presiona boton correcto/STOP/pasan 5 seg.
00119E B00A           00417     btfsc   perdio                      ; Revisa si perdio, en cuyo caso regresa a MENU_PRINCIPAL.
0011A0 EF?? F???      00418     goto    MENU_PRINCIPAL
0011A4 6A0A           00419     clrf    trayectoria                 ; Preparacion para siguiente secuencia.
                      00420     ; SECUENCIA 6.
0011A6 C016 F007      00421     movff   sec6, boton_esperado
0011AA EC?? F???      00422     call    TIMER_5s                    ; Revisar si presiona boton correcto/STOP/pasan 5 seg.
0011AE B00A           00423     btfsc   perdio                      ; Revisa si perdio, en cuyo caso regresa a MENU_PRINCIPAL.
0011B0 EF?? F???      00424     goto    MENU_PRINCIPAL
0011B4 6A0A           00425     clrf    trayectoria                 ; Preparacion para siguiente secuencia.
                      00426     ; SECUENCIA 7.
0011B6 C017 F007      00427     movff   sec7, boton_esperado
0011BA EC?? F???      00428     call    TIMER_5s                    ; Revisar si presiona boton correcto/STOP/pasan 5 seg.
0011BE B00A           00429     btfsc   perdio                      ; Revisa si perdio, en cuyo caso regresa a MENU_PRINCIPAL.
0011C0 EF?? F???      00430     goto    MENU_PRINCIPAL
0011C4 6A0A           00431     clrf    trayectoria                 ; Preparacion para siguiente secuencia.
                      00432     ; SECUENCIA 8.
0011C6 C018 F007      00433     movff   sec8, boton_esperado
0011CA EC?? F???      00434     call    TIMER_5s                    ; Revisar si presiona boton correcto/STOP/pasan 5 seg.
0011CE B00A           00435     btfsc   perdio                      ; Revisa si perdio, en cuyo caso regresa a MENU_PRINCIPAL.
0011D0 EF?? F???      00436     goto    MENU_PRINCIPAL
0011D4 6A0A           00437     clrf    trayectoria                 ; Preparacion para siguiente secuencia.
                      00438     
                      00439     ; NIVEL SUPERADO.
0011D6 0E38           00440     movlw   '8'
0011D8 6E05           00441     movwf   puntaje, A
0011DA EC?? F???      00442     call    NIVEL_SUPERADO
                      00443     
0011DE                00444 NIVEL9
0011DE EC?? F???      00445     call    RANDOM_REGISTER
0011E2 C00C F019      00446     movff   sec_aleatoria, sec9
                      00447     ; MOSTRAR SECUENCIA.
0011E6 C011 F00B      00448     movff   sec1, encender_led          ; Mostrarle la secuencia al usuario
0011EA EC?? F???      00449     call    ENCENDER_SECUENCIA
0011EE EC?? F???      00450     call    DELAY_100ms
0011F2 C012 F00B      00451     movff   sec2, encender_led          ; Mostrarle la secuencia al usuario
0011F6 EC?? F???      00452     call    ENCENDER_SECUENCIA
0011FA EC?? F???      00453     call    DELAY_100ms
0011FE C013 F00B      00454     movff   sec3, encender_led          ; Mostrarle la secuencia al usuario
001202 EC?? F???      00455     call    ENCENDER_SECUENCIA
001206 EC?? F???      00456     call    DELAY_100ms
00120A C014 F00B      00457     movff   sec4, encender_led          ; Mostrarle la secuencia al usuario
00120E EC?? F???      00458     call    ENCENDER_SECUENCIA
001212 EC?? F???      00459     call    DELAY_100ms
001216 C015 F00B      00460     movff   sec5, encender_led          ; Mostrarle la secuencia al usuario
00121A EC?? F???      00461     call    ENCENDER_SECUENCIA
00121E EC?? F???      00462     call    DELAY_100ms
MPASM 5.87                          MAIN.ASM   11-16-2021  2:06:39         PAGE 39


LOC  OBJECT CODE     LINE SOURCE TEXT
  VALUE

001222 C016 F00B      00463     movff   sec6, encender_led          ; Mostrarle la secuencia al usuario
001226 EC?? F???      00464     call    ENCENDER_SECUENCIA
00122A EC?? F???      00465     call    DELAY_100ms
00122E C017 F00B      00466     movff   sec7, encender_led          ; Mostrarle la secuencia al usuario
001232 EC?? F???      00467     call    ENCENDER_SECUENCIA
001236 EC?? F???      00468     call    DELAY_100ms
00123A C018 F00B      00469     movff   sec8, encender_led          ; Mostrarle la secuencia al usuario
00123E EC?? F???      00470     call    ENCENDER_SECUENCIA
001242 EC?? F???      00471     call    DELAY_100ms
001246 C019 F00B      00472     movff   sec9, encender_led          ; Mostrarle la secuencia al usuario
00124A EC?? F???      00473     call    ENCENDER_SECUENCIA
                      00474     
                      00475     ; SECUENCIA 1.
00124E C011 F007      00476     movff   sec1, boton_esperado
001252 EC?? F???      00477     call    TIMER_5s                    ; Revisar si presiona boton correcto/STOP/pasan 5 seg.
001256 B00A           00478     btfsc   perdio                      ; Revisa si perdio, en cuyo caso regresa a MENU_PRINCIPAL.
001258 EF?? F???      00479     goto    MENU_PRINCIPAL
00125C 6A0A           00480     clrf    trayectoria                 ; Preparacion para siguiente secuencia.
                      00481     ; SECUENCIA 2.
00125E C012 F007      00482     movff   sec2, boton_esperado
001262 EC?? F???      00483     call    TIMER_5s                    ; Revisar si presiona boton correcto/STOP/pasan 5 seg.
001266 B00A           00484     btfsc   perdio                      ; Revisa si perdio, en cuyo caso regresa a MENU_PRINCIPAL.
001268 EF?? F???      00485     goto    MENU_PRINCIPAL
00126C 6A0A           00486     clrf    trayectoria                 ; Preparacion para siguiente secuencia.
                      00487     ; SECUENCIA 3.
00126E C013 F007      00488     movff   sec3, boton_esperado
001272 EC?? F???      00489     call    TIMER_5s                    ; Revisar si presiona boton correcto/STOP/pasan 5 seg.
001276 B00A           00490     btfsc   perdio                      ; Revisa si perdio, en cuyo caso regresa a MENU_PRINCIPAL.
001278 EF?? F???      00491     goto    MENU_PRINCIPAL
00127C 6A0A           00492     clrf    trayectoria                 ; Preparacion para siguiente secuencia.
                      00493     ; SECUENCIA 4.
00127E C014 F007      00494     movff   sec4, boton_esperado
001282 EC?? F???      00495     call    TIMER_5s                    ; Revisar si presiona boton correcto/STOP/pasan 5 seg.
001286 B00A           00496     btfsc   perdio                      ; Revisa si perdio, en cuyo caso regresa a MENU_PRINCIPAL.
001288 EF?? F???      00497     goto    MENU_PRINCIPAL
00128C 6A0A           00498     clrf    trayectoria                 ; Preparacion para siguiente secuencia.
                      00499     ; SECUENCIA 5.
00128E C015 F007      00500     movff   sec5, boton_esperado
001292 EC?? F???      00501     call    TIMER_5s                    ; Revisar si presiona boton correcto/STOP/pasan 5 seg.
001296 B00A           00502     btfsc   perdio                      ; Revisa si perdio, en cuyo caso regresa a MENU_PRINCIPAL.
001298 EF?? F???      00503     goto    MENU_PRINCIPAL
00129C 6A0A           00504     clrf    trayectoria                 ; Preparacion para siguiente secuencia.
                      00505     ; SECUENCIA 6.
00129E C016 F007      00506     movff   sec6, boton_esperado
0012A2 EC?? F???      00507     call    TIMER_5s                    ; Revisar si presiona boton correcto/STOP/pasan 5 seg.
0012A6 B00A           00508     btfsc   perdio                      ; Revisa si perdio, en cuyo caso regresa a MENU_PRINCIPAL.
0012A8 EF?? F???      00509     goto    MENU_PRINCIPAL
0012AC 6A0A           00510     clrf    trayectoria                 ; Preparacion para siguiente secuencia.
                      00511     ; SECUENCIA 7.
0012AE C017 F007      00512     movff   sec7, boton_esperado
0012B2 EC?? F???      00513     call    TIMER_5s                    ; Revisar si presiona boton correcto/STOP/pasan 5 seg.
0012B6 B00A           00514     btfsc   perdio                      ; Revisa si perdio, en cuyo caso regresa a MENU_PRINCIPAL.
0012B8 EF?? F???      00515     goto    MENU_PRINCIPAL
MPASM 5.87                          MAIN.ASM   11-16-2021  2:06:39         PAGE 40


LOC  OBJECT CODE     LINE SOURCE TEXT
  VALUE

0012BC 6A0A           00516     clrf    trayectoria                 ; Preparacion para siguiente secuencia.
                      00517     ; SECUENCIA 8.
0012BE C018 F007      00518     movff   sec8, boton_esperado
0012C2 EC?? F???      00519     call    TIMER_5s                    ; Revisar si presiona boton correcto/STOP/pasan 5 seg.
0012C6 B00A           00520     btfsc   perdio                      ; Revisa si perdio, en cuyo caso regresa a MENU_PRINCIPAL.
0012C8 EF?? F???      00521     goto    MENU_PRINCIPAL
0012CC 6A0A           00522     clrf    trayectoria                 ; Preparacion para siguiente secuencia.
                      00523     ; SECUENCIA 9.
0012CE C019 F007      00524     movff   sec9, boton_esperado
0012D2 EC?? F???      00525     call    TIMER_5s                    ; Revisar si presiona boton correcto/STOP/pasan 5 seg.
0012D6 B00A           00526     btfsc   perdio                      ; Revisa si perdio, en cuyo caso regresa a MENU_PRINCIPAL.
0012D8 EF?? F???      00527     goto    MENU_PRINCIPAL
0012DC 6A0A           00528     clrf    trayectoria                 ; Preparacion para siguiente secuencia.
                      00529     
                      00530     ; NIVEL SUPERADO.
0012DE 0E39           00531     movlw   '9'
0012E0 6E05           00532     movwf   puntaje, A
0012E2 EC?? F???      00533     call    NIVEL_SUPERADO
                      00534     
0012E6                00535 NIVEL10
0012E6 EC?? F???      00536     call    RANDOM_REGISTER
0012EA C00C F01A      00537     movff   sec_aleatoria, sec10
                      00538     ; MOSTRAR SECUENCIA.
0012EE C011 F00B      00539     movff   sec1, encender_led          ; Mostrarle la secuencia al usuario
0012F2 EC?? F???      00540     call    ENCENDER_SECUENCIA
0012F6 EC?? F???      00541     call    DELAY_100ms
0012FA C012 F00B      00542     movff   sec2, encender_led          ; Mostrarle la secuencia al usuario
0012FE EC?? F???      00543     call    ENCENDER_SECUENCIA
001302 EC?? F???      00544     call    DELAY_100ms
001306 C013 F00B      00545     movff   sec3, encender_led          ; Mostrarle la secuencia al usuario
00130A EC?? F???      00546     call    ENCENDER_SECUENCIA
00130E EC?? F???      00547     call    DELAY_100ms
001312 C014 F00B      00548     movff   sec4, encender_led          ; Mostrarle la secuencia al usuario
001316 EC?? F???      00549     call    ENCENDER_SECUENCIA
00131A EC?? F???      00550     call    DELAY_100ms
00131E C015 F00B      00551     movff   sec5, encender_led          ; Mostrarle la secuencia al usuario
001322 EC?? F???      00552     call    ENCENDER_SECUENCIA
001326 EC?? F???      00553     call    DELAY_100ms
00132A C016 F00B      00554     movff   sec6, encender_led          ; Mostrarle la secuencia al usuario
00132E EC?? F???      00555     call    ENCENDER_SECUENCIA
001332 EC?? F???      00556     call    DELAY_100ms
001336 C017 F00B      00557     movff   sec7, encender_led          ; Mostrarle la secuencia al usuario
00133A EC?? F???      00558     call    ENCENDER_SECUENCIA
00133E EC?? F???      00559     call    DELAY_100ms
001342 C018 F00B      00560     movff   sec8, encender_led          ; Mostrarle la secuencia al usuario
001346 EC?? F???      00561     call    ENCENDER_SECUENCIA
00134A EC?? F???      00562     call    DELAY_100ms
00134E C019 F00B      00563     movff   sec9, encender_led          ; Mostrarle la secuencia al usuario
001352 EC?? F???      00564     call    ENCENDER_SECUENCIA
001356 EC?? F???      00565     call    DELAY_100ms
00135A C01A F00B      00566     movff   sec10, encender_led         ; Mostrarle la secuencia al usuario
00135E EC?? F???      00567     call    ENCENDER_SECUENCIA
                      00568     
MPASM 5.87                          MAIN.ASM   11-16-2021  2:06:39         PAGE 41


LOC  OBJECT CODE     LINE SOURCE TEXT
  VALUE

                      00569     ; SECUENCIA 1.
001362 C011 F007      00570     movff   sec1, boton_esperado
001366 EC?? F???      00571     call    TIMER_5s                    ; Revisar si presiona boton correcto/STOP/pasan 5 seg.
00136A B00A           00572     btfsc   perdio                      ; Revisa si perdio, en cuyo caso regresa a MENU_PRINCIPAL.
00136C EF?? F???      00573     goto    MENU_PRINCIPAL
001370 6A0A           00574     clrf    trayectoria                 ; Preparacion para siguiente secuencia.
                      00575     ; SECUENCIA 2.
001372 C012 F007      00576     movff   sec2, boton_esperado
001376 EC?? F???      00577     call    TIMER_5s                    ; Revisar si presiona boton correcto/STOP/pasan 5 seg.
00137A B00A           00578     btfsc   perdio                      ; Revisa si perdio, en cuyo caso regresa a MENU_PRINCIPAL.
00137C EF?? F???      00579     goto    MENU_PRINCIPAL
001380 6A0A           00580     clrf    trayectoria                 ; Preparacion para siguiente secuencia.
                      00581     ; SECUENCIA 3.
001382 C013 F007      00582     movff   sec3, boton_esperado
001386 EC?? F???      00583     call    TIMER_5s                    ; Revisar si presiona boton correcto/STOP/pasan 5 seg.
00138A B00A           00584     btfsc   perdio                      ; Revisa si perdio, en cuyo caso regresa a MENU_PRINCIPAL.
00138C EF?? F???      00585     goto    MENU_PRINCIPAL
001390 6A0A           00586     clrf    trayectoria                 ; Preparacion para siguiente secuencia.
                      00587     ; SECUENCIA 4.
001392 C014 F007      00588     movff   sec4, boton_esperado
001396 EC?? F???      00589     call    TIMER_5s                    ; Revisar si presiona boton correcto/STOP/pasan 5 seg.
00139A B00A           00590     btfsc   perdio                      ; Revisa si perdio, en cuyo caso regresa a MENU_PRINCIPAL.
00139C EF?? F???      00591     goto    MENU_PRINCIPAL
0013A0 6A0A           00592     clrf    trayectoria                 ; Preparacion para siguiente secuencia.
                      00593     ; SECUENCIA 5.
0013A2 C015 F007      00594     movff   sec5, boton_esperado
0013A6 EC?? F???      00595     call    TIMER_5s                    ; Revisar si presiona boton correcto/STOP/pasan 5 seg.
0013AA B00A           00596     btfsc   perdio                      ; Revisa si perdio, en cuyo caso regresa a MENU_PRINCIPAL.
0013AC EF?? F???      00597     goto    MENU_PRINCIPAL
0013B0 6A0A           00598     clrf    trayectoria                 ; Preparacion para siguiente secuencia.
                      00599     ; SECUENCIA 6.
0013B2 C016 F007      00600     movff   sec6, boton_esperado
0013B6 EC?? F???      00601     call    TIMER_5s                    ; Revisar si presiona boton correcto/STOP/pasan 5 seg.
0013BA B00A           00602     btfsc   perdio                      ; Revisa si perdio, en cuyo caso regresa a MENU_PRINCIPAL.
0013BC EF?? F???      00603     goto    MENU_PRINCIPAL
0013C0 6A0A           00604     clrf    trayectoria                 ; Preparacion para siguiente secuencia.
                      00605     ; SECUENCIA 7.
0013C2 C017 F007      00606     movff   sec7, boton_esperado
0013C6 EC?? F???      00607     call    TIMER_5s                    ; Revisar si presiona boton correcto/STOP/pasan 5 seg.
0013CA B00A           00608     btfsc   perdio                      ; Revisa si perdio, en cuyo caso regresa a MENU_PRINCIPAL.
0013CC EF?? F???      00609     goto    MENU_PRINCIPAL
0013D0 6A0A           00610     clrf    trayectoria                 ; Preparacion para siguiente secuencia.
                      00611     ; SECUENCIA 8.
0013D2 C018 F007      00612     movff   sec8, boton_esperado
0013D6 EC?? F???      00613     call    TIMER_5s                    ; Revisar si presiona boton correcto/STOP/pasan 5 seg.
0013DA B00A           00614     btfsc   perdio                      ; Revisa si perdio, en cuyo caso regresa a MENU_PRINCIPAL.
0013DC EF?? F???      00615     goto    MENU_PRINCIPAL
0013E0 6A0A           00616     clrf    trayectoria                 ; Preparacion para siguiente secuencia.
                      00617     ; SECUENCIA 9.
0013E2 C019 F007      00618     movff   sec9, boton_esperado
0013E6 EC?? F???      00619     call    TIMER_5s                    ; Revisar si presiona boton correcto/STOP/pasan 5 seg.
0013EA B00A           00620     btfsc   perdio                      ; Revisa si perdio, en cuyo caso regresa a MENU_PRINCIPAL.
0013EC EF?? F???      00621     goto    MENU_PRINCIPAL
MPASM 5.87                          MAIN.ASM   11-16-2021  2:06:39         PAGE 42


LOC  OBJECT CODE     LINE SOURCE TEXT
  VALUE

0013F0 6A0A           00622     clrf    trayectoria                 ; Preparacion para siguiente secuencia.
                      00623     ; SECUENCIA 10.
0013F2 C01A F007      00624     movff   sec10, boton_esperado
0013F6 EC?? F???      00625     call    TIMER_5s                    ; Revisar si presiona boton correcto/STOP/pasan 5 seg.
0013FA B00A           00626     btfsc   perdio                      ; Revisa si perdio, en cuyo caso regresa a MENU_PRINCIPAL.
0013FC EF?? F???      00627     goto    MENU_PRINCIPAL
001400 6A0A           00628     clrf    trayectoria                 ; Preparacion para siguiente secuencia.
                      00629     
                      00630     ; NIVEL SUPERADO.
001402 0E41           00631     movlw   'A'
001404 6E05           00632     movwf   puntaje, A
001406 EC?? F???      00633     call    NIVEL_SUPERADO
                      00634 
00140A EF?? F???      00635     goto    HIGHSCORE
                      00636     
                      00637   end
MPASM 5.87                          MAIN.ASM   11-16-2021  2:06:39         PAGE 43


SYMBOL TABLE
  LABEL                             VALUE 

A                                 00000000
ABDEN                             00000000
ABDOVF                            00000007
ACCESS                            00000000
ACKDT                             00000005
ACKEN                             00000004
ACKSTAT                           00000006
ACKTIM                            00000007
ACQT0                             00000003
ACQT1                             00000004
ACQT2                             00000005
ACTCON                            00000FB5
ACTD                              00000006
ACTEN                             00000007
ACTIE                             00000007
ACTIF                             00000007
ACTIP                             00000007
ACTLOCK                           00000003
ACTMD                             00000004
ACTOR                             00000001
ACTORS                            00000001
ACTSEL                            00000007
ACTSRC                            00000004
ACTUALIZAR_HIGHSCORE              00000CFC
ACTUD                             00000006
ACTVIE                            00000002
ACTVIF                            00000002
ADCMD                             00000002
ADCON0                            00000FC2
ADCON1                            00000FC1
ADCON2                            00000FC0
ADCS0                             00000000
ADCS1                             00000001
ADCS2                             00000002
ADDEN                             00000003
ADDR0                             00000000
ADDR1                             00000001
ADDR2                             00000002
ADDR3                             00000003
ADDR4                             00000004
ADDR5                             00000005
ADDR6                             00000006
ADEN                              00000003
ADFM                              00000007
ADIE                              00000006
ADIF                              00000006
ADIP                              00000006
ADON                              00000000
ADRESH                            00000FC4
ADRESL                            00000FC3
AHEN                              00000001
AN0                               00000000
AN1                               00000001
MPASM 5.87                          MAIN.ASM   11-16-2021  2:06:39         PAGE 44


SYMBOL TABLE
  LABEL                             VALUE 

AN2                               00000002
AN3                               00000003
AN4                               00000005
ANSA0                             00000000
ANSA1                             00000001
ANSA2                             00000002
ANSA3                             00000003
ANSA5                             00000005
ANSB0                             00000000
ANSB1                             00000001
ANSB2                             00000002
ANSB3                             00000003
ANSB4                             00000004
ANSB5                             00000005
ANSC2                             00000002
ANSC6                             00000006
ANSC7                             00000007
ANSD0                             00000000
ANSD1                             00000001
ANSD2                             00000002
ANSD3                             00000003
ANSD4                             00000004
ANSD5                             00000005
ANSD6                             00000006
ANSD7                             00000007
ANSE0                             00000000
ANSE1                             00000001
ANSE2                             00000002
ANSELA                            00000F5B
ANSELB                            00000F5C
ANSELC                            00000F5D
ANSELD                            00000F5E
ANSELE                            00000F5F
ANTIRREBOTE_PUNTAJES              00000D78
BANKED                            00000001
BAUDCON                           00000FB8
BAUDCON1                          00000FB8
BCL1IE                            00000003
BCL1IF                            00000003
BCL1IP                            00000003
BCLIE                             00000003
BCLIF                             00000003
BCLIP                             00000003
BF                                00000000
BGVST                             00000006
BOEN                              00000004
BOR                               00000000
BORRAR_EEPROM                     00000D38
BOTON_AMARILLO                    00000B48
BOTON_AZUL                        00000B30
BOTON_BLANCO                      00000B18
BOTON_HIGHSCORE                   00000B72
BOTON_NARANJA                     00000B00
MPASM 5.87                          MAIN.ASM   11-16-2021  2:06:39         PAGE 45


SYMBOL TABLE
  LABEL                             VALUE 

BOTON_START_MENU                  00000B60
BOTON_START_STOP                  00000AEE
BRG0                              00000000
BRG1                              00000001
BRG10                             00000002
BRG11                             00000003
BRG12                             00000004
BRG13                             00000005
BRG14                             00000006
BRG15                             00000007
BRG16                             00000003
BRG2                              00000002
BRG3                              00000003
BRG4                              00000004
BRG5                              00000005
BRG6                              00000006
BRG7                              00000007
BRG8                              00000000
BRG9                              00000001
BRGH                              00000002
BSR                               00000FE0
BTOEE                             00000004
BTOEF                             00000004
BTSEE                             00000007
BTSEF                             00000007
C                                 00000000
C1CH0                             00000000
C1CH1                             00000001
C1HYS                             00000003
C1IE                              00000006
C1IF                              00000006
C1IP                              00000006
C1OE                              00000005
C1ON                              00000007
C1OUT                             00000006
C1POL                             00000004
C1R                               00000002
C1RSEL                            00000005
C1SP                              00000003
C1SYNC                            00000001
C1TSEL                            00000000
C2CH0                             00000000
C2CH1                             00000001
C2HYS                             00000002
C2IE                              00000005
C2IF                              00000005
C2IP                              00000005
C2OE                              00000005
C2ON                              00000007
C2OUT                             00000006
C2POL                             00000004
C2R                               00000002
C2RSEL                            00000004
MPASM 5.87                          MAIN.ASM   11-16-2021  2:06:39         PAGE 46


SYMBOL TABLE
  LABEL                             VALUE 

C2SP                              00000003
C2SYNC                            00000000
C2TSEL                            00000003
CCH0                              00000000
CCH1                              00000001
CCP1                              00000002
CCP1ASE                           00000007
CCP1CON                           00000FBD
CCP1IE                            00000002
CCP1IF                            00000002
CCP1IP                            00000002
CCP1M0                            00000000
CCP1M1                            00000001
CCP1M2                            00000002
CCP1M3                            00000003
CCP1MD                            00000000
CCP1X                             00000005
CCP1Y                             00000004
CCP2CON                           00000F97
CCP2IE                            00000000
CCP2IF                            00000000
CCP2IP                            00000000
CCP2M0                            00000000
CCP2M1                            00000001
CCP2M2                            00000002
CCP2M3                            00000003
CCP2MD                            00000001
CCP2X                             00000005
CCP2Y                             00000004
CCPR1                             00000FBE
CCPR1H                            00000FBF
CCPR1L                            00000FBE
CCPR2                             00000F90
CCPR2H                            00000F91
CCPR2L                            00000F90
CCPTMRS                           00000F59
CFGS                              00000006
CK                                00000006
CK1SPP                            00000000
CK2SPP                            00000001
CKE                               00000006
CKP                               00000004
CKTXP                             00000004
CM1CON0                           00000F98
CM1IE                             00000006
CM1IF                             00000006
CM1IP                             00000006
CM2CON0                           00000F99
CM2CON1                           00000F9A
CM2IE                             00000005
CM2IF                             00000005
CM2IP                             00000005
CMP1MD                            00000003
MPASM 5.87                          MAIN.ASM   11-16-2021  2:06:39         PAGE 47


SYMBOL TABLE
  LABEL                             VALUE 

CMP2MD                            00000004
COE                               00000005
CON                               00000007
CONFIGURA                         00000030
CONFIGURE_LCD                     00000172
COUT1                             00000006
COUT2                             00000006
CPOL                              00000004
CRC16EE                           00000002
CRC16EF                           00000002
CRC5EE                            00000001
CRC5EF                            00000001
CREF                              00000002
CREN                              00000004
CSRC                              00000007
CTMUCON0                          00000F8F
CTMUCON1                          00000F8E
CTMUCONH                          00000F8F
CTMUCONL                          00000F8E
CTMUEN                            00000007
CTMUICON                          00000F88
CTMUIE                            00000003
CTMUIF                            00000003
CTMUIP                            00000003
CTMUMD                            00000005
CTMUSIDL                          00000005
CTTRIG                            00000000
DACEN                             00000007
DACLPS                            00000006
DACNSS                            00000000
DACOE                             00000005
DACPSS0                           00000002
DACPSS1                           00000003
DACR0                             00000000
DACR1                             00000001
DACR2                             00000002
DACR3                             00000003
DACR4                             00000004
DATA_READ                         00000140
DATA_WRITE                        00000138
DC                                00000001
DC1B0                             00000004
DC1B1                             00000005
DC2B0                             00000004
DC2B1                             00000005
DDRA                              TRISA
DDRB                              TRISB
DDRC                              TRISC
DDRD                              TRISD
DDRE                              TRISE
DECODER                           00000C3C
DELAY_100ms                       0000006E
DELAY_100us                       00000062
MPASM 5.87                          MAIN.ASM   11-16-2021  2:06:39         PAGE 48


SYMBOL TABLE
  LABEL                             VALUE 

DELAY_1s                          0000009A
DELAY_1s_LOOP1                    000000A8
DELAY_1s_LOOP2                    000000BA
DELAY_20ms                        00000084
DFN8EE                            00000003
DFN8EF                            00000003
DHEN                              00000000
DIR                               00000002
DONE                              00000001
DTRXP                             00000005
D_NOT_A                           00000005
E                                 LATC, 2, A
ECCP1AS                           00000FB6
ECCP1AS0                          00000004
ECCP1AS1                          00000005
ECCP1AS2                          00000006
ECCP1ASE                          00000007
ECCP1CON                          00000FBD
ECCP1DEL                          00000FB7
ECCP2CON                          00000F97
EDG1POL                           00000004
EDG1SEL0                          00000002
EDG1SEL1                          00000003
EDG1STAT                          00000000
EDG2POL                           00000007
EDG2SEL0                          00000005
EDG2SEL1                          00000006
EDG2STAT                          00000001
EDGEN                             00000003
EDGSEQEN                          00000002
EEADR                             00000FA9
EECON1                            00000FA6
EECON2                            00000FA7
EEDATA                            00000FA8
EEIE                              00000004
EEIF                              00000004
EEIP                              00000004
EEPGD                             00000007
ENCENDER_SECUENCIA                00000C6A
ENDP0                             00000003
ENDP1                             00000004
ENDP2                             00000005
ENDP3                             00000006
EPCONDIS                          00000003
EPHSHK                            00000004
EPINEN                            00000001
EPOUTEN                           00000002
EPSTALL                           00000000
ESPERA_LCD                        00000158
FAST                              00000001
FERR                              00000002
FLTS                              00000002
FREE                              00000004
MPASM 5.87                          MAIN.ASM   11-16-2021  2:06:39         PAGE 49


SYMBOL TABLE
  LABEL                             VALUE 

FRM0                              00000000
FRM1                              00000001
FRM10                             00000002
FRM2                              00000002
FRM3                              00000003
FRM4                              00000004
FRM5                              00000005
FRM6                              00000006
FRM7                              00000007
FRM8                              00000000
FRM9                              00000001
FSEN                              00000002
FSR0                              00000000
FSR0H                             00000FEA
FSR0L                             00000FE9
FSR1                              00000001
FSR1H                             00000FE2
FSR1L                             00000FE1
FSR2                              00000002
FSR2H                             00000FDA
FSR2L                             00000FD9
FVREN                             00000007
FVRS0                             00000004
FVRS1                             00000005
FVRST                             00000006
GAME_OVER                         00000102
GCEN                              00000007
GIE                               00000007
GIEH                              00000007
GIEL                              00000006
GIE_GIEH                          00000007
GO                                00000001
GO_NOT_DONE                       00000001
HFIOFR                            00000001
HFIOFS                            00000002
HIGHSCORE                         00000112
HLVDCON                           00000F9C
HLVDEN                            00000004
HLVDIE                            00000002
HLVDIF                            00000002
HLVDIN                            00000005
HLVDIP                            00000002
HLVDL0                            00000000
HLVDL1                            00000001
HLVDL2                            00000002
HLVDL3                            00000003
IDISSEN                           00000001
IDLEIE                            00000004
IDLEIF                            00000004
IDLEN                             00000007
INDF0                             00000FEF
INDF1                             00000FE7
INDF2                             00000FDF
MPASM 5.87                          MAIN.ASM   11-16-2021  2:06:39         PAGE 50


SYMBOL TABLE
  LABEL                             VALUE 

INSTRUCTION_WRITE                 00000130
INT0                              00000000
INT0E                             00000004
INT0F                             00000001
INT0IE                            00000004
INT0IF                            00000001
INT1                              00000001
INT1E                             00000003
INT1F                             00000000
INT1IE                            00000003
INT1IF                            00000000
INT1IP                            00000006
INT1P                             00000006
INT2                              00000002
INT2E                             00000004
INT2F                             00000001
INT2IE                            00000004
INT2IF                            00000001
INT2IP                            00000007
INT2P                             00000007
INTCON                            00000FF2
INTCON2                           00000FF1
INTCON3                           00000FF0
INTEDG0                           00000006
INTEDG1                           00000005
INTEDG2                           00000004
INTSRC                            00000005
IOCB                              00000F86
IOCB4                             00000004
IOCB5                             00000005
IOCB6                             00000006
IOCB7                             00000007
IOCC                              00000F87
IOCC0                             00000000
IOCC1                             00000001
IOCC2                             00000002
IOCC4                             00000004
IOCC5                             00000005
IOCC6                             00000006
IOCC7                             00000007
IOCIE                             00000003
IOCIF                             00000000
IOCIP                             00000000
IPEN                              00000007
IPR1                              00000F9F
IPR2                              00000FA2
IPR3                              00000FA5
IRCF0                             00000004
IRCF1                             00000005
IRCF2                             00000006
IRNG0                             00000000
IRNG1                             00000001
IRVST                             00000005
MPASM 5.87                          MAIN.ASM   11-16-2021  2:06:39         PAGE 51


SYMBOL TABLE
  LABEL                             VALUE 

ITRIM0                            00000002
ITRIM1                            00000003
ITRIM2                            00000004
ITRIM3                            00000005
ITRIM4                            00000006
ITRIM5                            00000007
JUEGO                             00000D86
LATA                              00000F89
LATA0                             00000000
LATA1                             00000001
LATA2                             00000002
LATA3                             00000003
LATA4                             00000004
LATA5                             00000005
LATA6                             00000006
LATA7                             00000007
LATB                              00000F8A
LATB0                             00000000
LATB1                             00000001
LATB2                             00000002
LATB3                             00000003
LATB4                             00000004
LATB5                             00000005
LATB6                             00000006
LATB7                             00000007
LATC                              00000F8B
LATC0                             00000000
LATC1                             00000001
LATC2                             00000002
LATC4                             00000004
LATC5                             00000005
LATC6                             00000006
LATC7                             00000007
LATD                              00000F8C
LATD0                             00000000
LATD1                             00000001
LATD2                             00000002
LATD3                             00000003
LATD4                             00000004
LATD5                             00000005
LATD6                             00000006
LATD7                             00000007
LATE                              00000F8D
LATE0                             00000000
LATE1                             00000001
LATE2                             00000002
LED_01                            00000C4A
LED_10                            00000C58
LED_11                            00000C66
LFIOFS                            00000000
LOOP1                             0000008C
LOOP_LOSER_LEFT                   00000618
LOOP_LOSER_RIGHT                  0000062C
MPASM 5.87                          MAIN.ASM   11-16-2021  2:06:39         PAGE 52


SYMBOL TABLE
  LABEL                             VALUE 

LVDIE                             00000002
LVDIF                             00000002
LVDIN                             00000005
LVDIP                             00000002
MAIN                              00000D5C
MC1OUT                            00000007
MC2OUT                            00000006
MENU_PRINCIPAL                    00000D60
MSSP1MD                           00000006
MSSPMD                            00000006
N                                 00000004
NIVEL1                            00000D8E
NIVEL10                           000012E6
NIVEL2                            00000DB6
NIVEL3                            00000DFA
NIVEL4                            00000E5A
NIVEL5                            00000ED6
NIVEL6                            00000F6E
NIVEL7                            00001022
NIVEL8                            000010F2
NIVEL9                            000011DE
NIVEL_SUPERADO                    0000011A
NOT_BOR                           00000000
NOT_DONE                          00000001
NOT_PD                            00000002
NOT_POR                           00000001
NOT_RBPU                          00000007
NOT_RI                            00000004
NOT_T1DONE                        00000003
NOT_T1SYNC                        00000002
NOT_T3DONE                        00000003
NOT_T3SYNC                        00000002
NOT_TO                            00000003
NVCFG0                            00000000
NVCFG1                            00000001
OERR                              00000001
OESPP                             00000002
ON                                00000007
ON_BLUE                           00000BFC
ON_GREEN                          00000B94
ON_ORANGE                         00000BC8
ON_RED                            00000BAE
ON_WHITE                          00000BE2
ON_YELLOW                         00000C16
OSC2                              00000006
OSCCON                            00000FD3
OSCCON2                           00000FD2
OSCFIE                            00000007
OSCFIF                            00000007
OSCFIP                            00000007
OSCTUNE                           00000F9B
OSTS                              00000003
OV                                00000003
MPASM 5.87                          MAIN.ASM   11-16-2021  2:06:39         PAGE 53


SYMBOL TABLE
  LABEL                             VALUE 

P                                 00000004
P1A                               00000002
P1M0                              00000006
P1M1                              00000007
P1RSEN                            00000007
PC                                00000FF9
PCIE                              00000006
PCL                               00000FF9
PCLATH                            00000FFA
PCLATU                            00000FFB
PD                                00000002
PDC0                              00000000
PDC1                              00000001
PDC2                              00000002
PDC3                              00000003
PDC4                              00000004
PDC5                              00000005
PDC6                              00000006
PEIE                              00000006
PEIE_GIEL                         00000006
PEN                               00000002
PGC                               00000006
PGD                               00000007
PGM                               00000005
PIDEE                             00000000
PIDEF                             00000000
PIE1                              00000F9D
PIE2                              00000FA0
PIE3                              00000FA3
PIR1                              00000F9E
PIR2                              00000FA1
PIR3                              00000FA4
PKTDIS                            00000004
PLLEN                             00000004
PLLRDY                            00000007
PLUSW0                            00000FEB
PLUSW1                            00000FE3
PLUSW2                            00000FDB
PMD0                              00000F7E
PMD1                              00000F7F
POR                               00000001
PORTA                             00000F80
PORTB                             00000F81
PORTC                             00000F82
PORTD                             00000F83
PORTE                             00000F84
POSTDEC0                          00000FED
POSTDEC1                          00000FE5
POSTDEC2                          00000FDD
POSTINC0                          00000FEE
POSTINC1                          00000FE6
POSTINC2                          00000FDE
PPB0                              00000000
MPASM 5.87                          MAIN.ASM   11-16-2021  2:06:39         PAGE 54


SYMBOL TABLE
  LABEL                             VALUE 

PPB1                              00000001
PPBI                              00000001
PPBRST                            00000006
PR1SEN                            00000007
PR2                               00000FBB
PREINC0                           00000FEC
PREINC1                           00000FE4
PREINC2                           00000FDC
PRINT_LESS_10                     00000A9C
PRINT_SCORE                       00000A84
PRISD                             00000002
PROD                              00000FF3
PRODH                             00000FF4
PRODL                             00000FF3
PSA                               00000003
PSS1AC0                           00000002
PSS1AC1                           00000003
PSS1BD0                           00000000
PSS1BD1                           00000001
PSSAC0                            00000002
PSSAC1                            00000003
PSSBD0                            00000000
PSSBD1                            00000001
PSTR1CON                          00000FB9
PUNTAJES                          00000D6A
PVCFG0                            00000002
PVCFG1                            00000003
PWM1CON                           00000FB7
RA0                               00000000
RA1                               00000001
RA2                               00000002
RA3                               00000003
RA4                               00000004
RA5                               00000005
RA6                               00000006
RA7                               00000007
RANDOM_REGISTER                   00000C30
RB0                               00000000
RB1                               00000001
RB2                               00000002
RB3                               00000003
RB4                               00000004
RB5                               00000005
RB6                               00000006
RB7                               00000007
RBPU                              00000007
RC0                               00000000
RC1                               00000001
RC1IE                             00000005
RC1IF                             00000005
RC1IP                             00000005
RC2                               00000002
RC4                               00000004
MPASM 5.87                          MAIN.ASM   11-16-2021  2:06:39         PAGE 55


SYMBOL TABLE
  LABEL                             VALUE 

RC5                               00000005
RC6                               00000006
RC7                               00000007
RCEN                              00000003
RCIDL                             00000006
RCIE                              00000005
RCIF                              00000005
RCIP                              00000005
RCMT                              00000006
RCON                              00000FD0
RCREG                             00000FAE
RCREG1                            00000FAE
RCSTA                             00000FAB
RCSTA1                            00000FAB
RD                                00000000
RD0                               00000000
RD1                               00000001
RD16                              00000001
RD2                               00000002
RD3                               00000003
RD4                               00000004
RD5                               00000005
RD6                               00000006
RD7                               00000007
RE0                               00000000
RE1                               00000001
RE2                               00000002
RE3                               00000003
RECORRIDO_JUEGO                   00000AAA
RECORRIDO_MENU                    00000AD6
REGRESA                           00000162
RESUME                            00000002
REVISAR_BOTON                     00000B84
RI                                00000004
RS                                LATC, 0, A
RSEN                              00000001
RW                                LATC, 1, A
RX                                00000007
RX9                               00000006
RX9D                              00000000
RXDTP                             00000005
R_NOT_W                           00000002
S                                 00000003
SBCDE                             00000002
SBOREN                            00000006
SCIE                              00000005
SCKP                              00000004
SCS0                              00000000
SCS1                              00000001
SDAHT                             00000003
SE0                               00000005
SEN                               00000000
SENDB                             00000003
MPASM 5.87                          MAIN.ASM   11-16-2021  2:06:39         PAGE 56


SYMBOL TABLE
  LABEL                             VALUE 

SEND_DATA                         00000148
SHOW_HIGHSCORE                    0000074E
SHOW_MAIN_MENU                    000009BA
SHOW_PUNTAJE                      0000087C
SHOW_SCORES_MENU                  000008EC
SHOW_TIMES_OVER                   00000822
SIDL                              00000005
SLRA                              00000000
SLRB                              00000001
SLRC                              00000002
SLRCON                            00000F7A
SLRD                              00000003
SLRE                              00000004
SMP                               00000007
SOFIE                             00000006
SOFIF                             00000006
SOSCEN                            00000003
SOSCGO                            00000003
SOSCRUN                           00000006
SP0                               00000000
SP1                               00000001
SP2                               00000002
SP3                               00000003
SP4                               00000004
SPBRG                             00000FAF
SPBRG1                            00000FAF
SPBRGH                            00000FB0
SPBRGH1                           00000FB0
SPEN                              00000007
SPLLMULT                          00000007
SPP0                              00000000
SPP1                              00000001
SPP2                              00000002
SPP3                              00000003
SPP4                              00000004
SPP5                              00000005
SPP6                              00000006
SPP7                              00000007
SRCLK0                            00000004
SRCLK1                            00000005
SRCLK2                            00000006
SRCON0                            00000F58
SRCON1                            00000F57
SREN                              00000005
SRLEN                             00000007
SRNQEN                            00000002
SRPR                              00000000
SRPS                              00000001
SRQEN                             00000003
SRRC1E                            00000000
SRRC2E                            00000001
SRRCKE                            00000002
SRRPE                             00000003
MPASM 5.87                          MAIN.ASM   11-16-2021  2:06:39         PAGE 57


SYMBOL TABLE
  LABEL                             VALUE 

SRSC1E                            00000004
SRSC2E                            00000005
SRSCKE                            00000006
SRSPE                             00000007
SSP1ADD                           00000FC8
SSP1ADD0                          00000000
SSP1ADD1                          00000001
SSP1ADD2                          00000002
SSP1ADD3                          00000003
SSP1ADD4                          00000004
SSP1ADD5                          00000005
SSP1ADD6                          00000006
SSP1ADD7                          00000007
SSP1BUF                           00000FC9
SSP1CON1                          00000FC6
SSP1CON2                          00000FC5
SSP1CON3                          00000FCB
SSP1IE                            00000003
SSP1IF                            00000003
SSP1IP                            00000003
SSP1MD                            00000006
SSP1MSK                           00000FCA
SSP1MSK0                          00000000
SSP1MSK1                          00000001
SSP1MSK2                          00000002
SSP1MSK3                          00000003
SSP1MSK4                          00000004
SSP1MSK5                          00000005
SSP1MSK6                          00000006
SSP1MSK7                          00000007
SSP1STAT                          00000FC7
SSPADD                            00000FC8
SSPBUF                            00000FC9
SSPCON                            00000FC6
SSPCON1                           00000FC6
SSPCON2                           00000FC5
SSPCON3                           00000FCB
SSPEN                             00000005
SSPIE                             00000003
SSPIF                             00000003
SSPIP                             00000003
SSPM0                             00000000
SSPM1                             00000001
SSPM2                             00000002
SSPM3                             00000003
SSPMSK                            00000FCA
SSPOV                             00000006
SSPSTAT                           00000FC7
STALLIE                           00000005
STALLIF                           00000005
STATUS                            00000FD8
STCON                             00000FB5
STEN                              00000007
MPASM 5.87                          MAIN.ASM   11-16-2021  2:06:39         PAGE 58


SYMBOL TABLE
  LABEL                             VALUE 

STIE                              00000007
STIF                              00000007
STIP                              00000007
STKFUL                            00000007
STKOVF                            00000007
STKPTR                            00000FFC
STKUNF                            00000006
STLOCK                            00000003
STMD                              00000004
STOP                              00000106
STOP_PUNTAJES                     00000D72
STOR                              00000001
STR1A                             00000000
STR1B                             00000001
STR1C                             00000002
STR1D                             00000003
STR1SYNC                          00000004
STRA                              00000000
STRB                              00000001
STRC                              00000002
STRD                              00000003
STRSYNC                           00000004
STSRC                             00000004
STUD                              00000006
SUSPND                            00000001
SWDTE                             00000000
SWDTEN                            00000000
SYNC                              00000004
T08BIT                            00000006
T0CKI                             00000004
T0CON                             00000FD5
T0CS                              00000005
T0IE                              00000005
T0IF                              00000002
T0IP                              00000002
T0PS0                             00000000
T0PS1                             00000001
T0PS2                             00000002
T0SE                              00000004
T13CKI                            00000000
T1CKPS0                           00000004
T1CKPS1                           00000005
T1CON                             00000FCD
T1DONE                            00000003
T1GCON                            00000FCC
T1GGO                             00000003
T1GGO_NOT_DONE                    00000003
T1GGO_NOT_T1DONE                  00000003
T1GPOL                            00000006
T1GSPM                            00000004
T1GSS0                            00000000
T1GSS1                            00000001
T1GTM                             00000005
MPASM 5.87                          MAIN.ASM   11-16-2021  2:06:39         PAGE 59


SYMBOL TABLE
  LABEL                             VALUE 

T1GVAL                            00000002
T1OSCEN                           00000003
T1OSI                             00000001
T1OSO                             00000000
T1RD16                            00000001
T1SOSCEN                          00000003
T1SYNC                            00000002
T2CKPS0                           00000000
T2CKPS1                           00000001
T2CON                             00000FBA
T2OUTPS0                          00000003
T2OUTPS1                          00000004
T2OUTPS2                          00000005
T2OUTPS3                          00000006
T3CKPS0                           00000004
T3CKPS1                           00000005
T3CON                             00000FB1
T3DONE                            00000003
T3GCON                            00000FB4
T3GGO                             00000003
T3GGO_NOT_DONE                    00000003
T3GGO_NOT_T3DONE                  00000003
T3GPOL                            00000006
T3GSPM                            00000004
T3GSS0                            00000000
T3GSS1                            00000001
T3GTM                             00000005
T3GVAL                            00000002
T3OSCEN                           00000003
T3RD16                            00000001
T3SOSCEN                          00000003
T3SYNC                            00000002
TABLAT                            00000FF5
TBLPTR                            00000FF6
TBLPTRH                           00000FF7
TBLPTRL                           00000FF6
TBLPTRU                           00000FF8
TGEN                              00000004
TIMER_5s                          000000C8
TIME_OUT                          000000F6
TMR0                              00000FD6
TMR0H                             00000FD7
TMR0IE                            00000005
TMR0IF                            00000002
TMR0IP                            00000002
TMR0L                             00000FD6
TMR0ON                            00000007
TMR1                              00000FCE
TMR1CS0                           00000006
TMR1CS1                           00000007
TMR1GE                            00000007
TMR1GIE                           00000000
TMR1GIF                           00000000
MPASM 5.87                          MAIN.ASM   11-16-2021  2:06:39         PAGE 60


SYMBOL TABLE
  LABEL                             VALUE 

TMR1GIP                           00000000
TMR1H                             00000FCF
TMR1IE                            00000000
TMR1IF                            00000000
TMR1IP                            00000000
TMR1L                             00000FCE
TMR1MD                            00000000
TMR1ON                            00000000
TMR2                              00000FBC
TMR2IE                            00000001
TMR2IF                            00000001
TMR2IP                            00000001
TMR2MD                            00000001
TMR2ON                            00000002
TMR3                              00000FB2
TMR3CS0                           00000006
TMR3CS1                           00000007
TMR3GE                            00000007
TMR3GIE                           00000001
TMR3GIF                           00000001
TMR3GIP                           00000001
TMR3H                             00000FB3
TMR3IE                            00000001
TMR3IF                            00000001
TMR3IP                            00000001
TMR3L                             00000FB2
TMR3MD                            00000002
TMR3ON                            00000000
TO                                00000003
TOS                               00000FFD
TOSH                              00000FFE
TOSL                              00000FFD
TOSU                              00000FFF
TRIGEN                            00000000
TRIGSEL                           00000007
TRISA                             00000F92
TRISA0                            00000000
TRISA1                            00000001
TRISA2                            00000002
TRISA3                            00000003
TRISA4                            00000004
TRISA5                            00000005
TRISA6                            00000006
TRISA7                            00000007
TRISB                             00000F93
TRISB0                            00000000
TRISB1                            00000001
TRISB2                            00000002
TRISB3                            00000003
TRISB4                            00000004
TRISB5                            00000005
TRISB6                            00000006
TRISB7                            00000007
MPASM 5.87                          MAIN.ASM   11-16-2021  2:06:39         PAGE 61


SYMBOL TABLE
  LABEL                             VALUE 

TRISC                             00000F94
TRISC0                            00000000
TRISC1                            00000001
TRISC2                            00000002
TRISC4                            00000004
TRISC5                            00000005
TRISC6                            00000006
TRISC7                            00000007
TRISD                             00000F95
TRISD0                            00000000
TRISD1                            00000001
TRISD2                            00000002
TRISD3                            00000003
TRISD4                            00000004
TRISD5                            00000005
TRISD6                            00000006
TRISD7                            00000007
TRISE                             00000F96
TRISE0                            00000000
TRISE1                            00000001
TRISE2                            00000002
TRMT                              00000001
TRNIE                             00000003
TRNIF                             00000003
TSEN                              00000003
TSRNG                             00000002
TUN0                              00000000
TUN1                              00000001
TUN2                              00000002
TUN3                              00000003
TUN4                              00000004
TUN5                              00000005
TUN6                              00000006
TX                                00000006
TX1IE                             00000004
TX1IF                             00000004
TX1IP                             00000004
TX9                               00000006
TX9D                              00000000
TXCKP                             00000004
TXEN                              00000005
TXIE                              00000004
TXIF                              00000004
TXIP                              00000004
TXREG                             00000FAD
TXREG1                            00000FAD
TXSTA                             00000FAC
TXSTA1                            00000FAC
UA                                00000001
UADDR                             00000F63
UART1MD                           00000006
UARTMD                            00000006
UCFG                              00000F62
MPASM 5.87                          MAIN.ASM   11-16-2021  2:06:39         PAGE 62


SYMBOL TABLE
  LABEL                             VALUE 

UCON                              00000F60
UEIE                              00000F66
UEIR                              00000F67
UEP0                              00000F6A
UEP1                              00000F6B
UEP10                             00000F74
UEP11                             00000F75
UEP12                             00000F76
UEP13                             00000F77
UEP14                             00000F78
UEP15                             00000F79
UEP2                              00000F6C
UEP3                              00000F6D
UEP4                              00000F6E
UEP5                              00000F6F
UEP6                              00000F70
UEP7                              00000F71
UEP8                              00000F72
UEP9                              00000F73
UERRIE                            00000001
UERRIF                            00000001
UFRM                              00000F68
UFRMH                             00000F69
UFRML                             00000F68
UIE                               00000F64
UIR                               00000F65
UOEMON                            00000006
UPUEN                             00000004
URSTIE                            00000000
URSTIF                            00000000
USBEN                             00000003
USBIE                             00000002
USBIF                             00000002
USBIP                             00000002
USBMD                             00000005
USTAT                             00000F61
UTEYE                             00000007
UTRDIS                            00000003
VDIRMAG                           00000007
VERIFICAR_HIGHSCORE               00000D1A
VREFCON0                          00000F7D
VREFCON1                          00000F7C
VREFCON2                          00000F7B
VREFM                             00000002
VREFP                             00000003
VREGCON                           00000F5A
W                                 00000000
WCOL                              00000007
WDTCON                            00000FD1
WIN_ANIMATION_LOOP                00000686
WPUB                              00000F85
WPUB0                             00000000
WPUB1                             00000001
MPASM 5.87                          MAIN.ASM   11-16-2021  2:06:39         PAGE 63


SYMBOL TABLE
  LABEL                             VALUE 

WPUB2                             00000002
WPUB3                             00000003
WPUB4                             00000004
WPUB5                             00000005
WPUB6                             00000006
WPUB7                             00000007
WPUE3                             00000007
WR                                00000001
WREG                              00000FE8
WREN                              00000002
WRERR                             00000003
WRITE_EEPROM_GAME                 00000C84
WUE                               00000001
Z                                 00000002
_17                               00000023
_256                              00000003
_256_1                            00000020
_256_2                            00000021
_26                               00000004
_5                                00000022
_BOREN_NOSLP_2L                   000000FD
_BOREN_OFF_2L                     000000F9
_BOREN_ON_2L                      000000FB
_BOREN_SBORDIS_2L                 000000FF
_BORV_190_2L                      000000FF
_BORV_220_2L                      000000F7
_BORV_250_2L                      000000EF
_BORV_285_2L                      000000E7
_CCP2MX_RB3_3H                    000000FE
_CCP2MX_RC1_3H                    000000FF
_CFGPLLEN_OFF_1L                  000000FD
_CFGPLLEN_ON_1L                   000000FF
_CONFIG1H                         00300001
_CONFIG1L                         00300000
_CONFIG2H                         00300003
_CONFIG2L                         00300002
_CONFIG3H                         00300005
_CONFIG4L                         00300006
_CONFIG5H                         00300009
_CONFIG5L                         00300008
_CONFIG6H                         0030000B
_CONFIG6L                         0030000A
_CONFIG7H                         0030000D
_CONFIG7L                         0030000C
_CP0_OFF_5L                       000000FF
_CP0_ON_5L                        000000FE
_CP1_OFF_5L                       000000FF
_CP1_ON_5L                        000000FD
_CP2_OFF_5L                       000000FF
_CP2_ON_5L                        000000FB
_CP3_OFF_5L                       000000FF
_CP3_ON_5L                        000000F7
_CPB_OFF_5H                       000000FF
MPASM 5.87                          MAIN.ASM   11-16-2021  2:06:39         PAGE 64


SYMBOL TABLE
  LABEL                             VALUE 

_CPB_ON_5H                        000000BF
_CPD_OFF_5H                       000000FF
_CPD_ON_5H                        0000007F
_CPUDIV_CLKDIV2_1L                000000EF
_CPUDIV_CLKDIV3_1L                000000F7
_CPUDIV_CLKDIV6_1L                000000FF
_CPUDIV_NOCLKDIV_1L               000000E7
_DEBUG_OFF_4L                     000000FF
_DEBUG_ON_4L                      0000007F
_DEVID1                           003FFFFE
_DEVID2                           003FFFFF
_EBTR0_OFF_7L                     000000FF
_EBTR0_ON_7L                      000000FE
_EBTR1_OFF_7L                     000000FF
_EBTR1_ON_7L                      000000FD
_EBTR2_OFF_7L                     000000FF
_EBTR2_ON_7L                      000000FB
_EBTR3_OFF_7L                     000000FF
_EBTR3_ON_7L                      000000F7
_EBTRB_OFF_7H                     000000FF
_EBTRB_ON_7H                      000000BF
_FCMEN_OFF_1H                     000000BF
_FCMEN_ON_1H                      000000FF
_FOSC_ECHCLKO_1H                  000000F4
_FOSC_ECHIO_1H                    000000F5
_FOSC_ECLCLKO_1H                  000000FC
_FOSC_ECLIO_1H                    000000FD
_FOSC_ECMCLKO_1H                  000000FA
_FOSC_ECMIO_1H                    000000FB
_FOSC_HSH_1H                      000000F2
_FOSC_HSM_1H                      000000F3
_FOSC_INTOSCCLKO_1H               000000F9
_FOSC_INTOSCIO_1H                 000000F8
_FOSC_LP_1H                       000000F0
_FOSC_RCCLKO_1H                   000000F6
_FOSC_RCIO_1H                     000000F7
_FOSC_XT_1H                       000000F1
_ICPRT_OFF_4L                     000000DF
_ICPRT_ON_4L                      000000FF
_IDLOC0                           00200000
_IDLOC1                           00200001
_IDLOC2                           00200002
_IDLOC3                           00200003
_IDLOC4                           00200004
_IDLOC5                           00200005
_IDLOC6                           00200006
_IDLOC7                           00200007
_IESO_OFF_1H                      0000007F
_IESO_ON_1H                       000000FF
_LOADING_CHARS_GANAR              0000020A
_LOADING_CHARS_PERDER             0000033A
_LOADING_CHARS_TIEMPO             0000019A
_LOSING_PIXELS                    00000348
MPASM 5.87                          MAIN.ASM   11-16-2021  2:06:39         PAGE 65


SYMBOL TABLE
  LABEL                             VALUE 

_LS48MHZ_SYS24X4_1L               000000DF
_LS48MHZ_SYS48X8_1L               000000FF
_LVP_OFF_4L                       000000FB
_LVP_ON_4L                        000000FF
_MCLRE_OFF_3H                     0000007F
_MCLRE_ON_3H                      000000FF
_PBADEN_OFF_3H                    000000FD
_PBADEN_ON_3H                     000000FF
_PCLKEN_OFF_1H                    000000DF
_PCLKEN_ON_1H                     000000FF
_PLLSEL_PLL3X_1L                  000000FF
_PLLSEL_PLL4X_1L                  000000FE
_SAD_PIXELS                       000001A8
_SDOMX_RB3_3H                     000000FF
_SDOMX_RC7_3H                     000000BF
_STVREN_OFF_4L                    000000FE
_STVREN_ON_4L                     000000FF
_T3CMX_RB5_3H                     000000EF
_T3CMX_RC0_3H                     000000FF
_WDTEN_NOSLP_2H                   000000FD
_WDTEN_OFF_2H                     000000FC
_WDTEN_ON_2H                      000000FF
_WDTEN_SWON_2H                    000000FE
_WDTPS_1024_2H                    000000EB
_WDTPS_128_2H                     000000DF
_WDTPS_16384_2H                   000000FB
_WDTPS_16_2H                      000000D3
_WDTPS_1_2H                       000000C3
_WDTPS_2048_2H                    000000EF
_WDTPS_256_2H                     000000E3
_WDTPS_2_2H                       000000C7
_WDTPS_32768_2H                   000000FF
_WDTPS_32_2H                      000000D7
_WDTPS_4096_2H                    000000F3
_WDTPS_4_2H                       000000CB
_WDTPS_512_2H                     000000E7
_WDTPS_64_2H                      000000DB
_WDTPS_8192_2H                    000000F7
_WDTPS_8_2H                       000000CF
_WINNER_PIXELS                    00000218
_WRITING_LOSER_ANIM               000004CA
_WRITING_WINNER_ANIM              0000063E
_WRT0_OFF_6L                      000000FF
_WRT0_ON_6L                       000000FE
_WRT1_OFF_6L                      000000FF
_WRT1_ON_6L                       000000FD
_WRT2_OFF_6L                      000000FF
_WRT2_ON_6L                       000000FB
_WRT3_OFF_6L                      000000FF
_WRT3_ON_6L                       000000F7
_WRTB_OFF_6H                      000000FF
_WRTB_ON_6H                       000000BF
_WRTC_OFF_6H                      000000FF
MPASM 5.87                          MAIN.ASM   11-16-2021  2:06:39         PAGE 66


SYMBOL TABLE
  LABEL                             VALUE 

_WRTC_ON_6H                       000000DF
_WRTD_OFF_6H                      000000FF
_WRTD_ON_6H                       0000007F
_XINST_OFF_4L                     000000BF
_XINST_ON_4L                      000000FF
__18F45K50                        00000001
_nLPBOR_OFF_2L                    000000FF
_nLPBOR_ON_2L                     000000BF
_nPWRTEN_OFF_2L                   000000FF
_nPWRTEN_ON_2L                    000000FE
actualizar1_reciente              00000CCA
actualizar3_reciente              00000C9A
actualizar_2reciente              00000CB2
bit_led_amarillo                  boton_presionado, 1, A
bit_led_azul                      boton_presionado, 0, A
bit_led_blanco                    boton_presionado, 3, A
bit_led_naranja                   boton_presionado, 2, A
boton_esperado                    00000007
boton_presionado                  00000006
configFlag                        TRISD, 7, A
correcto                          trayectoria, 1, A
dataLCD                           LATD, A
encender_led                      0000000B
espera                            000000D8
fila1                             PORTB, 0, A
fila2                             PORTB, 1, A
flag                              PORTD, 7, A
led_amarillo                      LATA, 1, A
led_azul                          LATA, 0, A
led_blanco                        LATA, 3, A
led_naranja                       LATA, 2, A
led_rojo                          LATA, 4, A
led_verde                         LATA, 5, A
loop1                             00000066
loop2                             00000076
para                              trayectoria, 2, A
perdio                            trayectoria, 0, A
protocolo_escritura_eeprom        00000CE4
puntaje                           00000005
puntaje_apoyo                     0000000D
register_loser                    00000008
sec1                              00000011
sec10                             0000001A
sec2                              00000012
sec3                              00000013
sec4                              00000014
sec5                              00000015
sec6                              00000016
sec7                              00000017
sec8                              00000018
sec9                              00000019
sec_aleatoria                     0000000C
shifter                           00000009
MPASM 5.87                          MAIN.ASM   11-16-2021  2:06:39         PAGE 67


SYMBOL TABLE
  LABEL                             VALUE 

temp_eeprom1                      00000024
temp_eeprom2                      00000025
trayectoria                       0000000A
var1                              00000000
var2                              00000001
var3                              00000002
waitwrite                         00000CF0

Errors   :     0
Warnings :     0 reported,     0 suppressed
Messages :     0 reported,     0 suppressed

